(lp0
cnumpy.core.multiarray
scalar
p1
(cnumpy
dtype
p2
(S'f8'
p3
I0
I1
tp4
Rp5
(I3
S'<'
p6
NNNI-1
I-1
I0
tp7
bS'Cy\r\xd1\x93\x8c\xd3?'
p8
tp9
Rp10
ag1
(g5
S'_Cy\x1cA\xd0\xd2?'
p11
tp12
Rp13
ag1
(g5
S'w\xac@\x84\x80\xc2\xd2?'
p14
tp15
Rp16
ag1
(g5
S'\xfe\x9e[\x1e4\xbc\xd2?'
p17
tp18
Rp19
a.