(lp0
cnumpy.core.multiarray
scalar
p1
(cnumpy
dtype
p2
(S'f4'
p3
I0
I1
tp4
Rp5
(I3
S'<'
p6
NNNI-1
I-1
I0
tp7
bS'\x98Z\x88>'
p8
tp9
Rp10
ag1
(g5
S'\xfa:\x8a>'
p11
tp12
Rp13
ag1
(g5
S'\xd0\xf4\x86>'
p14
tp15
Rp16
ag1
(g5
S'$\xf1\x85>'
p17
tp18
Rp19
ag1
(g5
S'\x80\x08\x89>'
p20
tp21
Rp22
ag1
(g5
S'0\x17\x8a>'
p23
tp24
Rp25
ag1
(g5
S'\x03\xcf\x86>'
p26
tp27
Rp28
ag1
(g5
S'|7\x87>'
p29
tp30
Rp31
ag1
(g5
S'\xf4\xdf\x84>'
p32
tp33
Rp34
ag1
(g5
S'\x8a\xdb\x82>'
p35
tp36
Rp37
ag1
(g5
S'\xe2\xa4l>'
p38
tp39
Rp40
ag1
(g5
S'Q>k>'
p41
tp42
Rp43
ag1
(g5
S'Rim>'
p44
tp45
Rp46
ag1
(g5
S'\xbf\x1dd>'
p47
tp48
Rp49
ag1
(g5
S'\x0c\x88i>'
p50
tp51
Rp52
ag1
(g5
S'\xf4O[>'
p53
tp54
Rp55
ag1
(g5
S'PWW>'
p56
tp57
Rp58
ag1
(g5
S'\xca\x15T>'
p59
tp60
Rp61
ag1
(g5
S'\xb6"F>'
p62
tp63
Rp64
ag1
(g5
S'\x10\x92E>'
p65
tp66
Rp67
ag1
(g5
S'\xe12@>'
p68
tp69
Rp70
ag1
(g5
S'\xfeR/>'
p71
tp72
Rp73
ag1
(g5
S"R\xa9'>"
p74
tp75
Rp76
ag1
(g5
S'\xe9\\\x1c>'
p77
tp78
Rp79
ag1
(g5
S'=w\x04>'
p80
tp81
Rp82
ag1
(g5
S'\x07)\xf7='
p83
tp84
Rp85
ag1
(g5
S'\xc2\x86\xed='
p86
tp87
Rp88
ag1
(g5
S'N\xcf\x07>'
p89
tp90
Rp91
ag1
(g5
S'\x80\x0f\x0f>'
p92
tp93
Rp94
ag1
(g5
S'\xd26\x13>'
p95
tp96
Rp97
ag1
(g5
S'\x8b\x03\x1b>'
p98
tp99
Rp100
ag1
(g5
S'\xca\xd8\x16>'
p101
tp102
Rp103
ag1
(g5
S'l\xf0\x0e>'
p104
tp105
Rp106
ag1
(g5
S'2\xbf\x01>'
p107
tp108
Rp109
ag1
(g5
S'\xfa\t\xeb='
p110
tp111
Rp112
ag1
(g5
S'$\x17\xe7='
p113
tp114
Rp115
ag1
(g5
S'\xb4\xdb\xe7='
p116
tp117
Rp118
ag1
(g5
S'\xef%\xec='
p119
tp120
Rp121
ag1
(g5
S'\xb0\xd2\xf2='
p122
tp123
Rp124
ag1
(g5
S'\xda\x91\xf0='
p125
tp126
Rp127
ag1
(g5
S'\xa8\xb8:>'
p128
tp129
Rp130
ag1
(g5
S'\x16\x08.>'
p131
tp132
Rp133
ag1
(g5
S'L\x133>'
p134
tp135
Rp136
ag1
(g5
S'\xa8\xae(>'
p137
tp138
Rp139
ag1
(g5
S'\xb0? >'
p140
tp141
Rp142
ag1
(g5
S'\xdc\xc8\x14>'
p143
tp144
Rp145
ag1
(g5
S'F\x95\x0b>'
p146
tp147
Rp148
ag1
(g5
S'\x1e^\x05>'
p149
tp150
Rp151
ag1
(g5
S'D\x00\xf4='
p152
tp153
Rp154
ag1
(g5
S'\xc3\x0e\xeb='
p155
tp156
Rp157
ag1
(g5
S'\xf0o\xec='
p158
tp159
Rp160
ag1
(g5
S'\xce\x02\xe9='
p161
tp162
Rp163
ag1
(g5
S'\x16\xaa\x05>'
p164
tp165
Rp166
ag1
(g5
S'\xcd\x16\x04>'
p167
tp168
Rp169
ag1
(g5
S'\xa9\x9b\x00>'
p170
tp171
Rp172
ag1
(g5
S'Y>\x0c>'
p173
tp174
Rp175
ag1
(g5
S'\xf8n\xf7='
p176
tp177
Rp178
ag1
(g5
S'\xdf\xbe\xfd='
p179
tp180
Rp181
ag1
(g5
S'\xa2D\xe7='
p182
tp183
Rp184
ag1
(g5
S'E\x1a\xe0='
p185
tp186
Rp187
ag1
(g5
S'2\xb0\xa4='
p188
tp189
Rp190
ag1
(g5
S'i\xa8\xae='
p191
tp192
Rp193
ag1
(g5
S'N \xb5='
p194
tp195
Rp196
ag1
(g5
S'\x8d\x96\xba='
p197
tp198
Rp199
ag1
(g5
S'\x82\x9c\xb7='
p200
tp201
Rp202
ag1
(g5
S'NN\xba='
p203
tp204
Rp205
ag1
(g5
S'\xbe\xb1\xa8='
p206
tp207
Rp208
ag1
(g5
S'iy\x99='
p209
tp210
Rp211
ag1
(g5
S'\xf4\x81\x98='
p212
tp213
Rp214
ag1
(g5
S'f\x18\x88='
p215
tp216
Rp217
ag1
(g5
S'|K\x87='
p218
tp219
Rp220
ag1
(g5
S'\x174y='
p221
tp222
Rp223
ag1
(g5
S'\x1f\xbf\x84='
p224
tp225
Rp226
ag1
(g5
S'B\xdcv='
p227
tp228
Rp229
ag1
(g5
S'\x03\xac\x8f='
p230
tp231
Rp232
ag1
(g5
S'\x94?\xb3='
p233
tp234
Rp235
ag1
(g5
S'\x84\x0f\x9a='
p236
tp237
Rp238
ag1
(g5
S'\x90\x19|='
p239
tp240
Rp241
ag1
(g5
S'2\x15\x80='
p242
tp243
Rp244
ag1
(g5
S'\xbf)b='
p245
tp246
Rp247
ag1
(g5
S'\xc8.\x9f='
p248
tp249
Rp250
ag1
(g5
S'4\xbd\x9d='
p251
tp252
Rp253
ag1
(g5
S'4\xdc\xa7='
p254
tp255
Rp256
ag1
(g5
S'\x94H\x82='
p257
tp258
Rp259
ag1
(g5
S'?\xfbR='
p260
tp261
Rp262
ag1
(g5
S'c\xf64='
p263
tp264
Rp265
ag1
(g5
S'>:(='
p266
tp267
Rp268
ag1
(g5
S'V\xf7.='
p269
tp270
Rp271
ag1
(g5
S'ZR>='
p272
tp273
Rp274
ag1
(g5
S'F\x8e>='
p275
tp276
Rp277
ag1
(g5
S'Ry\x1b>'
p278
tp279
Rp280
ag1
(g5
S'2\xc7\t>'
p281
tp282
Rp283
ag1
(g5
S'\xb4\xa80>'
p284
tp285
Rp286
ag1
(g5
S'\xd8\xc6\x1a>'
p287
tp288
Rp289
ag1
(g5
S'N:\x1e>'
p290
tp291
Rp292
ag1
(g5
S'I\xb7$>'
p293
tp294
Rp295
ag1
(g5
S'\x16\x1c\xeb='
p296
tp297
Rp298
ag1
(g5
S'\x8eF\xef='
p299
tp300
Rp301
ag1
(g5
S'\n\xc1\x0e>'
p302
tp303
Rp304
ag1
(g5
S'\xf1\xf9\xfb='
p305
tp306
Rp307
ag1
(g5
S'"\xe7\x0b>'
p308
tp309
Rp310
ag1
(g5
S'\x06\xe9\x07>'
p311
tp312
Rp313
ag1
(g5
S'\xea&\xf1='
p314
tp315
Rp316
ag1
(g5
S'\xfe\xf4\xe5='
p317
tp318
Rp319
ag1
(g5
S'35\xd3='
p320
tp321
Rp322
ag1
(g5
S'H`\xc5='
p323
tp324
Rp325
ag1
(g5
S'0\xf1\xc0='
p326
tp327
Rp328
ag1
(g5
S'|r\xc5='
p329
tp330
Rp331
ag1
(g5
S'R\xaf\xc0='
p332
tp333
Rp334
ag1
(g5
S'\xfd(\xbd='
p335
tp336
Rp337
ag1
(g5
S'R.\xc8='
p338
tp339
Rp340
ag1
(g5
S'\xd5g\xcf='
p341
tp342
Rp343
ag1
(g5
S'\x90\xb6\xcc='
p344
tp345
Rp346
ag1
(g5
S'\xee\xac\xd0='
p347
tp348
Rp349
ag1
(g5
S'\xbcV\xcb='
p350
tp351
Rp352
ag1
(g5
S'\x8e\xbc\xd0='
p353
tp354
Rp355
ag1
(g5
S'\xf9\xe4\xcc='
p356
tp357
Rp358
ag1
(g5
S'\xf2\xc3\xc8='
p359
tp360
Rp361
ag1
(g5
S'\x19\xcf\xc6='
p362
tp363
Rp364
ag1
(g5
S'\xec_\xc3='
p365
tp366
Rp367
ag1
(g5
S'@\xc2\xc9='
p368
tp369
Rp370
ag1
(g5
S'`\x8c\xc6='
p371
tp372
Rp373
ag1
(g5
S'\xe4\xf9\xbe='
p374
tp375
Rp376
ag1
(g5
S'N\xfa\xbc='
p377
tp378
Rp379
ag1
(g5
S'2\x87\xc2='
p380
tp381
Rp382
ag1
(g5
S'\xd83\xca='
p383
tp384
Rp385
ag1
(g5
S'\x86\xba\xc6='
p386
tp387
Rp388
ag1
(g5
S'v+\xca='
p389
tp390
Rp391
ag1
(g5
S'\xd8\x9e\xd3='
p392
tp393
Rp394
ag1
(g5
S'~ \xc5='
p395
tp396
Rp397
ag1
(g5
S'\xb6\n\xac='
p398
tp399
Rp400
ag1
(g5
S'c\xa6\xb6='
p401
tp402
Rp403
ag1
(g5
S'>\xc4\xab='
p404
tp405
Rp406
ag1
(g5
S':"\xaa='
p407
tp408
Rp409
ag1
(g5
S'\xb3\xad\xc0='
p410
tp411
Rp412
ag1
(g5
S'\\\xd5\xaf='
p413
tp414
Rp415
ag1
(g5
S'\x1c\xcf\xb4='
p416
tp417
Rp418
ag1
(g5
S't\xfb\xb3='
p419
tp420
Rp421
ag1
(g5
S'\x10\x0e\xad='
p422
tp423
Rp424
ag1
(g5
S'\xe0\xfa\xa3='
p425
tp426
Rp427
ag1
(g5
S'\xeb\x02\xa8='
p428
tp429
Rp430
ag1
(g5
S'\xb2\xb5\xa2='
p431
tp432
Rp433
ag1
(g5
S'D\x8b\xa5='
p434
tp435
Rp436
ag1
(g5
S'\xceg\x9b='
p437
tp438
Rp439
ag1
(g5
S'`\xb8\x9c='
p440
tp441
Rp442
ag1
(g5
S'4\xdd\xa1='
p443
tp444
Rp445
ag1
(g5
S't?\x9e='
p446
tp447
Rp448
ag1
(g5
S'5G\x94='
p449
tp450
Rp451
ag1
(g5
S'\xc9\xef\x97='
p452
tp453
Rp454
ag1
(g5
S'\xc2\xa3\x96='
p455
tp456
Rp457
ag1
(g5
S'9\xf0\x92='
p458
tp459
Rp460
ag1
(g5
S'\x03\xa8\x9c='
p461
tp462
Rp463
ag1
(g5
S'l\x06\x90='
p464
tp465
Rp466
ag1
(g5
S'\xf8\xa1\x87='
p467
tp468
Rp469
ag1
(g5
S'Wl\x97='
p470
tp471
Rp472
ag1
(g5
S'3\xbb\x89='
p473
tp474
Rp475
ag1
(g5
S'\xc2W\x8a='
p476
tp477
Rp478
ag1
(g5
S'\xfa\x0b\x90='
p479
tp480
Rp481
ag1
(g5
S'\x18C\x89='
p482
tp483
Rp484
ag1
(g5
S'T\xd1\x8d='
p485
tp486
Rp487
ag1
(g5
S'\xdf\x0c\x8a='
p488
tp489
Rp490
ag1
(g5
S'\x94\x7f\x87='
p491
tp492
Rp493
ag1
(g5
S' \x9f\x81='
p494
tp495
Rp496
ag1
(g5
S'\x9a\xac\x7f='
p497
tp498
Rp499
ag1
(g5
S'\xde\xe6\x85='
p500
tp501
Rp502
ag1
(g5
S'b\xad\x85='
p503
tp504
Rp505
ag1
(g5
S'u\x96\x82='
p506
tp507
Rp508
ag1
(g5
S'\xe1\xc3\x86='
p509
tp510
Rp511
ag1
(g5
S'\xa5\x97\x80='
p512
tp513
Rp514
ag1
(g5
S'Tc\x88='
p515
tp516
Rp517
ag1
(g5
S'\xd0(\x80='
p518
tp519
Rp520
ag1
(g5
S'\xf2;z='
p521
tp522
Rp523
ag1
(g5
S'\xca\x7fv='
p524
tp525
Rp526
ag1
(g5
S'\x04\xb0s='
p527
tp528
Rp529
ag1
(g5
S'\xf6\x1bs='
p530
tp531
Rp532
ag1
(g5
S'\xb9\xd5w='
p533
tp534
Rp535
ag1
(g5
S'\xff\x9ek='
p536
tp537
Rp538
ag1
(g5
S'\xd0-w='
p539
tp540
Rp541
ag1
(g5
S'\xe22\x84='
p542
tp543
Rp544
ag1
(g5
S'\xb9/m='
p545
tp546
Rp547
ag1
(g5
S'\xfe\xb8\x80='
p548
tp549
Rp550
ag1
(g5
S'v\x04y='
p551
tp552
Rp553
ag1
(g5
S'\xd2`o='
p554
tp555
Rp556
ag1
(g5
S'N|\x7f='
p557
tp558
Rp559
ag1
(g5
S'\xc0\x8en='
p560
tp561
Rp562
ag1
(g5
S'\x1c\x98\x7f='
p563
tp564
Rp565
ag1
(g5
S'P\\y='
p566
tp567
Rp568
ag1
(g5
S'\t\x7fp='
p569
tp570
Rp571
ag1
(g5
S'\xf7\x08y='
p572
tp573
Rp574
ag1
(g5
S's\x99n='
p575
tp576
Rp577
ag1
(g5
S'\x808u='
p578
tp579
Rp580
ag1
(g5
S'T\xd2o='
p581
tp582
Rp583
ag1
(g5
S'\xc6)w='
p584
tp585
Rp586
ag1
(g5
S'6\xb5k='
p587
tp588
Rp589
ag1
(g5
S'\x06\x9bd='
p590
tp591
Rp592
ag1
(g5
S'\xec>l='
p593
tp594
Rp595
ag1
(g5
S'\x87\xd1p='
p596
tp597
Rp598
ag1
(g5
S'\xb0\x88m='
p599
tp600
Rp601
ag1
(g5
S'Z\xe6m='
p602
tp603
Rp604
ag1
(g5
S'\xad\x15f='
p605
tp606
Rp607
ag1
(g5
S'\xc6\xfbf='
p608
tp609
Rp610
ag1
(g5
S'\x10\x06z='
p611
tp612
Rp613
ag1
(g5
S'\xef\xe7j='
p614
tp615
Rp616
ag1
(g5
S'GGj='
p617
tp618
Rp619
ag1
(g5
S'\x95\xc6r='
p620
tp621
Rp622
ag1
(g5
S'6\xa2h='
p623
tp624
Rp625
ag1
(g5
S'`\x02p='
p626
tp627
Rp628
ag1
(g5
S'\xaa\x97o='
p629
tp630
Rp631
ag1
(g5
S'\x96\xf8q='
p632
tp633
Rp634
ag1
(g5
S'\xc7\x86d='
p635
tp636
Rp637
ag1
(g5
S'\xd7Ni='
p638
tp639
Rp640
ag1
(g5
S'\x98dk='
p641
tp642
Rp643
ag1
(g5
S'\xc0\x16b='
p644
tp645
Rp646
ag1
(g5
S'\x8f\xa1n='
p647
tp648
Rp649
ag1
(g5
S'\xf2\xb0e='
p650
tp651
Rp652
ag1
(g5
S'\x8a\xbc_='
p653
tp654
Rp655
ag1
(g5
S"'\xbej="
p656
tp657
Rp658
ag1
(g5
S'JOb='
p659
tp660
Rp661
ag1
(g5
S'\x88\x0cg='
p662
tp663
Rp664
ag1
(g5
S'\xf6\x01e='
p665
tp666
Rp667
ag1
(g5
S'd\xdff='
p668
tp669
Rp670
ag1
(g5
S'\x15w`='
p671
tp672
Rp673
ag1
(g5
S'@vT='
p674
tp675
Rp676
ag1
(g5
S'\xe0g^='
p677
tp678
Rp679
ag1
(g5
S'J\xcce='
p680
tp681
Rp682
ag1
(g5
S'Nfg='
p683
tp684
Rp685
ag1
(g5
S'\x18P_='
p686
tp687
Rp688
ag1
(g5
S'hgc='
p689
tp690
Rp691
ag1
(g5
S'B\x8ba='
p692
tp693
Rp694
ag1
(g5
S'B|[='
p695
tp696
Rp697
ag1
(g5
S'\x92\x84b='
p698
tp699
Rp700
ag1
(g5
S'\x14\x8fP='
p701
tp702
Rp703
ag1
(g5
S'\xf8\xde_='
p704
tp705
Rp706
ag1
(g5
S'\xedZb='
p707
tp708
Rp709
ag1
(g5
S'\x93\x8ek='
p710
tp711
Rp712
ag1
(g5
S'\x1a\xb0q='
p713
tp714
Rp715
ag1
(g5
S'\xa3\x00b='
p716
tp717
Rp718
ag1
(g5
S'\x94\x11]='
p719
tp720
Rp721
ag1
(g5
S'\xb2\xf1^='
p722
tp723
Rp724
ag1
(g5
S'e\x00Z='
p725
tp726
Rp727
ag1
(g5
S'\x03b^='
p728
tp729
Rp730
ag1
(g5
S'\xf8\xc3h='
p731
tp732
Rp733
ag1
(g5
S'\x8apZ='
p734
tp735
Rp736
ag1
(g5
S'\x80\x01]='
p737
tp738
Rp739
ag1
(g5
S'\xf0\x0cZ='
p740
tp741
Rp742
ag1
(g5
S'\xa6\xc2b='
p743
tp744
Rp745
ag1
(g5
S'"\xc2P='
p746
tp747
Rp748
ag1
(g5
S'\xd6E^='
p749
tp750
Rp751
ag1
(g5
S'\xbaQV='
p752
tp753
Rp754
ag1
(g5
S'?/X='
p755
tp756
Rp757
ag1
(g5
S'T\x1fY='
p758
tp759
Rp760
ag1
(g5
S'\npc='
p761
tp762
Rp763
ag1
(g5
S'\x8e\x18Z='
p764
tp765
Rp766
ag1
(g5
S'1\xbcJ='
p767
tp768
Rp769
ag1
(g5
S'<\x01d='
p770
tp771
Rp772
ag1
(g5
S'P\x7fT='
p773
tp774
Rp775
ag1
(g5
S'\x10\x97\\='
p776
tp777
Rp778
ag1
(g5
S'\x17\xc1W='
p779
tp780
Rp781
ag1
(g5
S'\xa6\x0cV='
p782
tp783
Rp784
ag1
(g5
S'\xce\xce^='
p785
tp786
Rp787
ag1
(g5
S'\xd4\xd6\\='
p788
tp789
Rp790
ag1
(g5
S'H\xd7U='
p791
tp792
Rp793
ag1
(g5
S'^8T='
p794
tp795
Rp796
ag1
(g5
S'@\x8cX='
p797
tp798
Rp799
ag1
(g5
S'\xe2H_='
p800
tp801
Rp802
ag1
(g5
S'\xe2\x9bU='
p803
tp804
Rp805
ag1
(g5
S'6\xf3K='
p806
tp807
Rp808
ag1
(g5
S'\x1c\xefX='
p809
tp810
Rp811
ag1
(g5
S'\xfe%U='
p812
tp813
Rp814
ag1
(g5
S'+TH='
p815
tp816
Rp817
ag1
(g5
S'\xa1\xfdX='
p818
tp819
Rp820
ag1
(g5
S' \xf8Q='
p821
tp822
Rp823
ag1
(g5
S'\xd6\x07b='
p824
tp825
Rp826
ag1
(g5
S'@\x91R='
p827
tp828
Rp829
ag1
(g5
S'\xff\x8b^='
p830
tp831
Rp832
ag1
(g5
S'\x0fCS='
p833
tp834
Rp835
ag1
(g5
S'\xecId='
p836
tp837
Rp838
ag1
(g5
S'\xc4I\\='
p839
tp840
Rp841
ag1
(g5
S'\x13\xd9Q='
p842
tp843
Rp844
ag1
(g5
S'\x91\xa6U='
p845
tp846
Rp847
ag1
(g5
S'\xf7_h='
p848
tp849
Rp850
ag1
(g5
S'*\xd7m='
p851
tp852
Rp853
ag1
(g5
S'\xb6\xd9b='
p854
tp855
Rp856
ag1
(g5
S'I\x03a='
p857
tp858
Rp859
ag1
(g5
S'\x86\xcbZ='
p860
tp861
Rp862
ag1
(g5
S'\x81-V='
p863
tp864
Rp865
ag1
(g5
S'\xc3\xccj='
p866
tp867
Rp868
ag1
(g5
S'\xdfFP='
p869
tp870
Rp871
ag1
(g5
S'\xbaJb='
p872
tp873
Rp874
ag1
(g5
S'\xf2\xb1g='
p875
tp876
Rp877
ag1
(g5
S'\xa2pa='
p878
tp879
Rp880
ag1
(g5
S'\xd7l`='
p881
tp882
Rp883
ag1
(g5
S'^\x9de='
p884
tp885
Rp886
ag1
(g5
S'\x80c[='
p887
tp888
Rp889
ag1
(g5
S'\xbdsY='
p890
tp891
Rp892
ag1
(g5
S'h\xc0Z='
p893
tp894
Rp895
ag1
(g5
S'3\xceX='
p896
tp897
Rp898
ag1
(g5
S'\xe2um='
p899
tp900
Rp901
ag1
(g5
S'`\xf7[='
p902
tp903
Rp904
ag1
(g5
S'\xf2`e='
p905
tp906
Rp907
ag1
(g5
S'\xbe\xe2L='
p908
tp909
Rp910
ag1
(g5
S'\xbf\xe7R='
p911
tp912
Rp913
ag1
(g5
S'\xa0\xa9L='
p914
tp915
Rp916
ag1
(g5
S'\x04hR='
p917
tp918
Rp919
ag1
(g5
S'\r\xc3Z='
p920
tp921
Rp922
ag1
(g5
S'\xd2\xecV='
p923
tp924
Rp925
ag1
(g5
S'>gL='
p926
tp927
Rp928
ag1
(g5
S'2\xfcL='
p929
tp930
Rp931
ag1
(g5
S'\x12\x9cS='
p932
tp933
Rp934
ag1
(g5
S'\x8c9Q='
p935
tp936
Rp937
ag1
(g5
S'\xee[Q='
p938
tp939
Rp940
ag1
(g5
S'\xda=W='
p941
tp942
Rp943
ag1
(g5
S'\xbe\x17H='
p944
tp945
Rp946
ag1
(g5
S'\xbc\xf6L='
p947
tp948
Rp949
ag1
(g5
S'\x0c\xadW='
p950
tp951
Rp952
ag1
(g5
S'\xf62O='
p953
tp954
Rp955
ag1
(g5
S'\x06\xecU='
p956
tp957
Rp958
ag1
(g5
S'\xa3EF='
p959
tp960
Rp961
ag1
(g5
S'p\x9fN='
p962
tp963
Rp964
ag1
(g5
S'8\xceM='
p965
tp966
Rp967
ag1
(g5
S'\x8c\x8bW='
p968
tp969
Rp970
ag1
(g5
S'BFa='
p971
tp972
Rp973
ag1
(g5
S'\xf7\xe8I='
p974
tp975
Rp976
ag1
(g5
S'\xe7\xd6Q='
p977
tp978
Rp979
ag1
(g5
S'%\xa4R='
p980
tp981
Rp982
ag1
(g5
S'\xdd\x1fF='
p983
tp984
Rp985
ag1
(g5
S'\x81\xddP='
p986
tp987
Rp988
ag1
(g5
S'\x9c4Z='
p989
tp990
Rp991
ag1
(g5
S'.\xe4G='
p992
tp993
Rp994
ag1
(g5
S'\xf5^L='
p995
tp996
Rp997
ag1
(g5
S'\xcd\xe2A='
p998
tp999
Rp1000
ag1
(g5
S'4\xb1G='
p1001
tp1002
Rp1003
ag1
(g5
S'\x8e\x06@='
p1004
tp1005
Rp1006
ag1
(g5
S'\xdd)C='
p1007
tp1008
Rp1009
ag1
(g5
S'\xf8LF='
p1010
tp1011
Rp1012
ag1
(g5
S'\xfb.O='
p1013
tp1014
Rp1015
ag1
(g5
S'\xbe"S='
p1016
tp1017
Rp1018
ag1
(g5
S'\xc6\x1cM='
p1019
tp1020
Rp1021
ag1
(g5
S'\xe0PK='
p1022
tp1023
Rp1024
ag1
(g5
S'\x02\xe1>='
p1025
tp1026
Rp1027
ag1
(g5
S'v\\M='
p1028
tp1029
Rp1030
ag1
(g5
S'\xd17C='
p1031
tp1032
Rp1033
ag1
(g5
S'\xe2\x98Q='
p1034
tp1035
Rp1036
ag1
(g5
S'\xc8AR='
p1037
tp1038
Rp1039
ag1
(g5
S'\xa8\xc1I='
p1040
tp1041
Rp1042
ag1
(g5
S'\xe8\xa5C='
p1043
tp1044
Rp1045
ag1
(g5
S'L7T='
p1046
tp1047
Rp1048
ag1
(g5
S'\x86\x87F='
p1049
tp1050
Rp1051
ag1
(g5
S'^/K='
p1052
tp1053
Rp1054
ag1
(g5
S'\x82\x914='
p1055
tp1056
Rp1057
ag1
(g5
S'n6\x9e='
p1058
tp1059
Rp1060
ag1
(g5
S'we\x9e='
p1061
tp1062
Rp1063
ag1
(g5
S',\x86\x9f='
p1064
tp1065
Rp1066
ag1
(g5
S'\x1cL\xa2='
p1067
tp1068
Rp1069
ag1
(g5
S'd\xaf\xa5='
p1070
tp1071
Rp1072
ag1
(g5
S'\xbd\x1e\xa0='
p1073
tp1074
Rp1075
ag1
(g5
S'\x14\xde\xa3='
p1076
tp1077
Rp1078
ag1
(g5
S'\xd8^\x9f='
p1079
tp1080
Rp1081
ag1
(g5
S'rF\x9f='
p1082
tp1083
Rp1084
ag1
(g5
S'&\x17\xa1='
p1085
tp1086
Rp1087
ag1
(g5
S'\xd8m\xa7='
p1088
tp1089
Rp1090
ag1
(g5
S'R\x1e\xa6='
p1091
tp1092
Rp1093
ag1
(g5
S'n\xbb\xa7='
p1094
tp1095
Rp1096
ag1
(g5
S'\xb0n\xa7='
p1097
tp1098
Rp1099
ag1
(g5
S'U\xe5\xa5='
p1100
tp1101
Rp1102
ag1
(g5
S'\xb8\x11\xa4='
p1103
tp1104
Rp1105
ag1
(g5
S'\x81x\xa7='
p1106
tp1107
Rp1108
ag1
(g5
S'f\xa3\xa6='
p1109
tp1110
Rp1111
ag1
(g5
S'\x16\x1e\xa4='
p1112
tp1113
Rp1114
ag1
(g5
S'\xa8]\xa3='
p1115
tp1116
Rp1117
ag1
(g5
S'\xa6\x9d3='
p1118
tp1119
Rp1120
ag1
(g5
S'\xa8i7='
p1121
tp1122
Rp1123
ag1
(g5
S'iq4='
p1124
tp1125
Rp1126
ag1
(g5
S'\xe0\xba7='
p1127
tp1128
Rp1129
ag1
(g5
S'\xbc>A='
p1130
tp1131
Rp1132
ag1
(g5
S'z9(='
p1133
tp1134
Rp1135
ag1
(g5
S'7Z9='
p1136
tp1137
Rp1138
ag1
(g5
S'\xce\x17;='
p1139
tp1140
Rp1141
ag1
(g5
S'b\xe2%='
p1142
tp1143
Rp1144
ag1
(g5
S'L\xa55='
p1145
tp1146
Rp1147
ag1
(g5
S'\xb0\x9a\xe8<'
p1148
tp1149
Rp1150
ag1
(g5
S'\xe4|\xed<'
p1151
tp1152
Rp1153
ag1
(g5
S'\xee\x02\xf4<'
p1154
tp1155
Rp1156
ag1
(g5
S'\x06\xd8\xe5<'
p1157
tp1158
Rp1159
ag1
(g5
S'"m\xe7<'
p1160
tp1161
Rp1162
ag1
(g5
S']2\xf1<'
p1163
tp1164
Rp1165
ag1
(g5
S'\xf2\xb8\xe9<'
p1166
tp1167
Rp1168
ag1
(g5
S'\xfaL\xeb<'
p1169
tp1170
Rp1171
ag1
(g5
S'<\xc7\xed<'
p1172
tp1173
Rp1174
ag1
(g5
S'\\\x88\xea<'
p1175
tp1176
Rp1177
ag1
(g5
S'\x18\xaf`='
p1178
tp1179
Rp1180
ag1
(g5
S'K\xa4O='
p1181
tp1182
Rp1183
ag1
(g5
S' \xafB='
p1184
tp1185
Rp1186
ag1
(g5
S'4\x146='
p1187
tp1188
Rp1189
ag1
(g5
S'\xbb\x7fF='
p1190
tp1191
Rp1192
ag1
(g5
S'n@Z='
p1193
tp1194
Rp1195
ag1
(g5
S'[\x95:='
p1196
tp1197
Rp1198
ag1
(g5
S'>\x94V='
p1199
tp1200
Rp1201
ag1
(g5
S'a\x92>='
p1202
tp1203
Rp1204
ag1
(g5
S'\x84\xf0g='
p1205
tp1206
Rp1207
ag1
(g5
S'\x15\xd6\x84='
p1208
tp1209
Rp1210
ag1
(g5
S'\xb46\x8a='
p1211
tp1212
Rp1213
ag1
(g5
S'\x04\x80\x84='
p1214
tp1215
Rp1216
ag1
(g5
S'\xca\x1c\x85='
p1217
tp1218
Rp1219
ag1
(g5
S'7\xf3\x84='
p1220
tp1221
Rp1222
ag1
(g5
S'\xf6\n\x80='
p1223
tp1224
Rp1225
ag1
(g5
S'C\x8f\x83='
p1226
tp1227
Rp1228
ag1
(g5
S'\xbe\x19\x82='
p1229
tp1230
Rp1231
ag1
(g5
S')\x07\x86='
p1232
tp1233
Rp1234
ag1
(g5
S'\xc6\xfe\x84='
p1235
tp1236
Rp1237
ag1
(g5
S'0 \x82='
p1238
tp1239
Rp1240
ag1
(g5
S'\xaf\xfd\x82='
p1241
tp1242
Rp1243
ag1
(g5
S'\xd0\xb5y='
p1244
tp1245
Rp1246
ag1
(g5
S'\xe4\xf0\x80='
p1247
tp1248
Rp1249
ag1
(g5
S'~\xbb\x83='
p1250
tp1251
Rp1252
ag1
(g5
S'\xaa\xe7\x84='
p1253
tp1254
Rp1255
ag1
(g5
S'\xb7\xc1~='
p1256
tp1257
Rp1258
ag1
(g5
S'\xd2\x13\x83='
p1259
tp1260
Rp1261
ag1
(g5
S'\x9a\x99\x82='
p1262
tp1263
Rp1264
ag1
(g5
S'\xdf5}='
p1265
tp1266
Rp1267
ag1
(g5
S'\xe0\xf0}='
p1268
tp1269
Rp1270
ag1
(g5
S'\x9ajq='
p1271
tp1272
Rp1273
ag1
(g5
S'N<g='
p1274
tp1275
Rp1276
ag1
(g5
S'\xc6\xfby='
p1277
tp1278
Rp1279
ag1
(g5
S'Crv='
p1280
tp1281
Rp1282
ag1
(g5
S'%\xbdn='
p1283
tp1284
Rp1285
ag1
(g5
S'e\x8b~='
p1286
tp1287
Rp1288
ag1
(g5
S'8\x86s='
p1289
tp1290
Rp1291
ag1
(g5
S'\x84\x8eu='
p1292
tp1293
Rp1294
ag1
(g5
S'\xae;u='
p1295
tp1296
Rp1297
ag1
(g5
S'tEa='
p1298
tp1299
Rp1300
ag1
(g5
S'\t\xf4r='
p1301
tp1302
Rp1303
ag1
(g5
S'\x1aO\x80='
p1304
tp1305
Rp1306
ag1
(g5
S'\xc7${='
p1307
tp1308
Rp1309
ag1
(g5
S'\x91\xefz='
p1310
tp1311
Rp1312
ag1
(g5
S'\x1a\xd4~='
p1313
tp1314
Rp1315
ag1
(g5
S'\xd6;t='
p1316
tp1317
Rp1318
ag1
(g5
S'\x8c\x99\x82='
p1319
tp1320
Rp1321
ag1
(g5
S'\xfa\xe1|='
p1322
tp1323
Rp1324
ag1
(g5
S'r\x00y='
p1325
tp1326
Rp1327
ag1
(g5
S'X\x9a}='
p1328
tp1329
Rp1330
ag1
(g5
S'\xb8\x9bw='
p1331
tp1332
Rp1333
ag1
(g5
S'\xd8\xb9u='
p1334
tp1335
Rp1336
ag1
(g5
S'\xca\xe4{='
p1337
tp1338
Rp1339
ag1
(g5
S'{\x13x='
p1340
tp1341
Rp1342
ag1
(g5
S'x\xc1\x80='
p1343
tp1344
Rp1345
ag1
(g5
S'%\xc5w='
p1346
tp1347
Rp1348
ag1
(g5
S'q\x12w='
p1349
tp1350
Rp1351
ag1
(g5
S'\xec=w='
p1352
tp1353
Rp1354
ag1
(g5
S'~\x07r='
p1355
tp1356
Rp1357
ag1
(g5
S'\xba\x8by='
p1358
tp1359
Rp1360
ag1
(g5
S'\xcc\xb1{='
p1361
tp1362
Rp1363
ag1
(g5
S'\x8e\xce\x81='
p1364
tp1365
Rp1366
ag1
(g5
S'\xd4\xa0\x81='
p1367
tp1368
Rp1369
ag1
(g5
S'ZX|='
p1370
tp1371
Rp1372
ag1
(g5
S'\xf8\tv='
p1373
tp1374
Rp1375
ag1
(g5
S'$\x12o='
p1376
tp1377
Rp1378
ag1
(g5
S'@\x15\x81='
p1379
tp1380
Rp1381
ag1
(g5
S'\x80m}='
p1382
tp1383
Rp1384
ag1
(g5
S'Z/r='
p1385
tp1386
Rp1387
ag1
(g5
S'\x92\x10n='
p1388
tp1389
Rp1390
ag1
(g5
S'\nln='
p1391
tp1392
Rp1393
ag1
(g5
S'\x89E}='
p1394
tp1395
Rp1396
ag1
(g5
S'\xb9\xc0s='
p1397
tp1398
Rp1399
ag1
(g5
S'a\xact='
p1400
tp1401
Rp1402
ag1
(g5
S'^yq='
p1403
tp1404
Rp1405
ag1
(g5
S'\x8ctp='
p1406
tp1407
Rp1408
ag1
(g5
S'\xd7_v='
p1409
tp1410
Rp1411
ag1
(g5
S'\xd2ep='
p1412
tp1413
Rp1414
ag1
(g5
S'\x9a\x1cx='
p1415
tp1416
Rp1417
ag1
(g5
S'7Lo='
p1418
tp1419
Rp1420
ag1
(g5
S'4\x15p='
p1421
tp1422
Rp1423
ag1
(g5
S'9&g='
p1424
tp1425
Rp1426
ag1
(g5
S'\x00\xdag='
p1427
tp1428
Rp1429
ag1
(g5
S'J\x8ae='
p1430
tp1431
Rp1432
ag1
(g5
S'\xd3\xb9i='
p1433
tp1434
Rp1435
ag1
(g5
S'\xd0\x92_='
p1436
tp1437
Rp1438
ag1
(g5
S'"\x96b='
p1439
tp1440
Rp1441
ag1
(g5
S'\xc8\xb0g='
p1442
tp1443
Rp1444
ag1
(g5
S'\x1d\xaeg='
p1445
tp1446
Rp1447
ag1
(g5
S'\xea<o='
p1448
tp1449
Rp1450
ag1
(g5
S'\x8f\x8aj='
p1451
tp1452
Rp1453
ag1
(g5
S'.qw='
p1454
tp1455
Rp1456
ag1
(g5
S'&\x1el='
p1457
tp1458
Rp1459
ag1
(g5
S'6\xf9r='
p1460
tp1461
Rp1462
ag1
(g5
S':\x9fa='
p1463
tp1464
Rp1465
ag1
(g5
S'n\xcdg='
p1466
tp1467
Rp1468
ag1
(g5
S'\x8e\x99f='
p1469
tp1470
Rp1471
ag1
(g5
S'\x1eJi='
p1472
tp1473
Rp1474
ag1
(g5
S'\x98\x94j='
p1475
tp1476
Rp1477
ag1
(g5
S'\x95\xb1e='
p1478
tp1479
Rp1480
ag1
(g5
S'\x9c\x9ef='
p1481
tp1482
Rp1483
ag1
(g5
S'\xf6hb='
p1484
tp1485
Rp1486
ag1
(g5
S'\x8c\xfaj='
p1487
tp1488
Rp1489
ag1
(g5
S'\x12\xb8i='
p1490
tp1491
Rp1492
ag1
(g5
S'\xfd\xa7j='
p1493
tp1494
Rp1495
ag1
(g5
S'D\x82_='
p1496
tp1497
Rp1498
ag1
(g5
S'\xdc\x8fi='
p1499
tp1500
Rp1501
ag1
(g5
S'\xa4@]='
p1502
tp1503
Rp1504
ag1
(g5
S'0\x0bq='
p1505
tp1506
Rp1507
ag1
(g5
S'b\xbbo='
p1508
tp1509
Rp1510
ag1
(g5
S'F\tg='
p1511
tp1512
Rp1513
ag1
(g5
S'8\xcad='
p1514
tp1515
Rp1516
ag1
(g5
S'D\x12i='
p1517
tp1518
Rp1519
ag1
(g5
S'\x98Av='
p1520
tp1521
Rp1522
ag1
(g5
S'\x19\xb0f='
p1523
tp1524
Rp1525
ag1
(g5
S'\x1aFg='
p1526
tp1527
Rp1528
ag1
(g5
S'.0f='
p1529
tp1530
Rp1531
ag1
(g5
S'\xf8\xb7g='
p1532
tp1533
Rp1534
ag1
(g5
S'\xa6^g='
p1535
tp1536
Rp1537
ag1
(g5
S't3k='
p1538
tp1539
Rp1540
ag1
(g5
S'\x18\xda[='
p1541
tp1542
Rp1543
ag1
(g5
S'rTk='
p1544
tp1545
Rp1546
ag1
(g5
S'\x1c\x9e^='
p1547
tp1548
Rp1549
ag1
(g5
S'f\x8cd='
p1550
tp1551
Rp1552
ag1
(g5
S'9\x01`='
p1553
tp1554
Rp1555
ag1
(g5
S'!xb='
p1556
tp1557
Rp1558
ag1
(g5
S'\xbf\xb5f='
p1559
tp1560
Rp1561
ag1
(g5
S'\x11FP='
p1562
tp1563
Rp1564
ag1
(g5
S'\x0es`='
p1565
tp1566
Rp1567
ag1
(g5
S'\n\x11U='
p1568
tp1569
Rp1570
ag1
(g5
S'p\x93g='
p1571
tp1572
Rp1573
ag1
(g5
S'\xe5-^='
p1574
tp1575
Rp1576
ag1
(g5
S'\x02q^='
p1577
tp1578
Rp1579
ag1
(g5
S'~\xe4h='
p1580
tp1581
Rp1582
ag1
(g5
S'\xda2a='
p1583
tp1584
Rp1585
ag1
(g5
S'\xb1\xaci='
p1586
tp1587
Rp1588
ag1
(g5
S'\xe6XU='
p1589
tp1590
Rp1591
ag1
(g5
S'\x00\xd9q='
p1592
tp1593
Rp1594
ag1
(g5
S'\xaa\x9bk='
p1595
tp1596
Rp1597
ag1
(g5
S',\xff^='
p1598
tp1599
Rp1600
ag1
(g5
S'%\xcfb='
p1601
tp1602
Rp1603
ag1
(g5
S'\x16"c='
p1604
tp1605
Rp1606
ag1
(g5
S'`\x15b='
p1607
tp1608
Rp1609
ag1
(g5
S',|Q='
p1610
tp1611
Rp1612
ag1
(g5
S'4Ua='
p1613
tp1614
Rp1615
ag1
(g5
S'\\@d='
p1616
tp1617
Rp1618
ag1
(g5
S'\xf83[='
p1619
tp1620
Rp1621
ag1
(g5
S'D\x18h='
p1622
tp1623
Rp1624
ag1
(g5
S'\xfeY_='
p1625
tp1626
Rp1627
ag1
(g5
S'\xccMP='
p1628
tp1629
Rp1630
ag1
(g5
S'Y\xf2\\='
p1631
tp1632
Rp1633
ag1
(g5
S'L\xa4j='
p1634
tp1635
Rp1636
ag1
(g5
S'\xd1\xc5a='
p1637
tp1638
Rp1639
ag1
(g5
S'~*Y='
p1640
tp1641
Rp1642
ag1
(g5
S'\xb4\x97R='
p1643
tp1644
Rp1645
ag1
(g5
S'\njP='
p1646
tp1647
Rp1648
ag1
(g5
S'\xba\x85Z='
p1649
tp1650
Rp1651
ag1
(g5
S'\xd0\x8aQ='
p1652
tp1653
Rp1654
ag1
(g5
S'\xebrO='
p1655
tp1656
Rp1657
ag1
(g5
S'\xaf\xb7L='
p1658
tp1659
Rp1660
ag1
(g5
S'\x18$\\='
p1661
tp1662
Rp1663
ag1
(g5
S'\x0e\xd6Y='
p1664
tp1665
Rp1666
ag1
(g5
S'\xb3yT='
p1667
tp1668
Rp1669
ag1
(g5
S'\xe4\x85^='
p1670
tp1671
Rp1672
ag1
(g5
S'\xea\x02T='
p1673
tp1674
Rp1675
ag1
(g5
S'v\xfcX='
p1676
tp1677
Rp1678
ag1
(g5
S'\x04\x03_='
p1679
tp1680
Rp1681
ag1
(g5
S'\xa1\x8bF='
p1682
tp1683
Rp1684
ag1
(g5
S'.\x84]='
p1685
tp1686
Rp1687
ag1
(g5
S'\xf7\xf5]='
p1688
tp1689
Rp1690
ag1
(g5
S'\x83\x85W='
p1691
tp1692
Rp1693
ag1
(g5
S'h\x13S='
p1694
tp1695
Rp1696
ag1
(g5
S'\xa9\x8ba='
p1697
tp1698
Rp1699
ag1
(g5
S'\xb3\xa6U='
p1700
tp1701
Rp1702
ag1
(g5
S'jHU='
p1703
tp1704
Rp1705
ag1
(g5
S'\xd4\xa5h='
p1706
tp1707
Rp1708
ag1
(g5
S'7\xa9i='
p1709
tp1710
Rp1711
ag1
(g5
S'\x80\x0fj='
p1712
tp1713
Rp1714
ag1
(g5
S'0\x8e_='
p1715
tp1716
Rp1717
ag1
(g5
S'\x9e=O='
p1718
tp1719
Rp1720
ag1
(g5
S'\x92\xeaQ='
p1721
tp1722
Rp1723
ag1
(g5
S'\xbb\x89Q='
p1724
tp1725
Rp1726
ag1
(g5
S'\t\x07Q='
p1727
tp1728
Rp1729
ag1
(g5
S'\x9c\x0c\\='
p1730
tp1731
Rp1732
ag1
(g5
S'jU]='
p1733
tp1734
Rp1735
ag1
(g5
S'RCU='
p1736
tp1737
Rp1738
ag1
(g5
S'\xb4\xc5V='
p1739
tp1740
Rp1741
ag1
(g5
S'\xdf\x7fV='
p1742
tp1743
Rp1744
ag1
(g5
S'\xb6wY='
p1745
tp1746
Rp1747
ag1
(g5
S'\x02\xd1N='
p1748
tp1749
Rp1750
ag1
(g5
S'\x187]='
p1751
tp1752
Rp1753
ag1
(g5
S'diV='
p1754
tp1755
Rp1756
ag1
(g5
S'\xa8\xf4W='
p1757
tp1758
Rp1759
ag1
(g5
S'`\xedU='
p1760
tp1761
Rp1762
ag1
(g5
S'\xe8\xffS='
p1763
tp1764
Rp1765
ag1
(g5
S'\xfd\x86U='
p1766
tp1767
Rp1768
ag1
(g5
S'\x92\xf5_='
p1769
tp1770
Rp1771
ag1
(g5
S'z\xee\\='
p1772
tp1773
Rp1774
ag1
(g5
S'\xca\xb5U='
p1775
tp1776
Rp1777
ag1
(g5
S'\x16\x94A='
p1778
tp1779
Rp1780
ag1
(g5
S'82P='
p1781
tp1782
Rp1783
ag1
(g5
S'\xefrJ='
p1784
tp1785
Rp1786
ag1
(g5
S'\xc4<O='
p1787
tp1788
Rp1789
ag1
(g5
S'\x96\x9bN='
p1790
tp1791
Rp1792
ag1
(g5
S'\xc3\x82R='
p1793
tp1794
Rp1795
ag1
(g5
S'\x14\xfcL='
p1796
tp1797
Rp1798
ag1
(g5
S'\x8c\xe4O='
p1799
tp1800
Rp1801
ag1
(g5
S'\xd7yR='
p1802
tp1803
Rp1804
ag1
(g5
S'g=K='
p1805
tp1806
Rp1807
ag1
(g5
S'\x80\xf0O='
p1808
tp1809
Rp1810
ag1
(g5
S'\x86wJ='
p1811
tp1812
Rp1813
ag1
(g5
S'\x04oH='
p1814
tp1815
Rp1816
ag1
(g5
S'\xc4FD='
p1817
tp1818
Rp1819
ag1
(g5
S'\x03\xe8H='
p1820
tp1821
Rp1822
ag1
(g5
S'F\x85J='
p1823
tp1824
Rp1825
ag1
(g5
S'\x825K='
p1826
tp1827
Rp1828
ag1
(g5
S'\xeb<E='
p1829
tp1830
Rp1831
ag1
(g5
S'g\xd0F='
p1832
tp1833
Rp1834
ag1
(g5
S'n\x8eE='
p1835
tp1836
Rp1837
ag1
(g5
S'\xee\xbbM='
p1838
tp1839
Rp1840
ag1
(g5
S'jgO='
p1841
tp1842
Rp1843
ag1
(g5
S'beQ='
p1844
tp1845
Rp1846
ag1
(g5
S'\xb0sH='
p1847
tp1848
Rp1849
ag1
(g5
S'\x00[I='
p1850
tp1851
Rp1852
ag1
(g5
S'T[X='
p1853
tp1854
Rp1855
ag1
(g5
S'2\xb8M='
p1856
tp1857
Rp1858
ag1
(g5
S"B'X="
p1859
tp1860
Rp1861
ag1
(g5
S'k/K='
p1862
tp1863
Rp1864
ag1
(g5
S'\x07\xa3C='
p1865
tp1866
Rp1867
ag1
(g5
S'"\xa9Y='
p1868
tp1869
Rp1870
ag1
(g5
S'\xbc\xbc`='
p1871
tp1872
Rp1873
ag1
(g5
S'\x11\x07Z='
p1874
tp1875
Rp1876
ag1
(g5
S'\x8f\xbeS='
p1877
tp1878
Rp1879
ag1
(g5
S'$\xe9P='
p1880
tp1881
Rp1882
ag1
(g5
S'<\xb3_='
p1883
tp1884
Rp1885
ag1
(g5
S'r?c='
p1886
tp1887
Rp1888
ag1
(g5
S'\xff\xb0]='
p1889
tp1890
Rp1891
ag1
(g5
S'\x8c\xe2\\='
p1892
tp1893
Rp1894
ag1
(g5
S'\xcf\xc4b='
p1895
tp1896
Rp1897
ag1
(g5
S'\xde\xf0a='
p1898
tp1899
Rp1900
ag1
(g5
S'\xb2\x11`='
p1901
tp1902
Rp1903
ag1
(g5
S'p3[='
p1904
tp1905
Rp1906
ag1
(g5
S'\xba\x17[='
p1907
tp1908
Rp1909
ag1
(g5
S'\xea\x91[='
p1910
tp1911
Rp1912
ag1
(g5
S'\xf8\xdbb='
p1913
tp1914
Rp1915
ag1
(g5
S'\xbabU='
p1916
tp1917
Rp1918
ag1
(g5
S'\xf5\x18d='
p1919
tp1920
Rp1921
ag1
(g5
S'\xdc\x85X='
p1922
tp1923
Rp1924
ag1
(g5
S'\xf0\xa0\\='
p1925
tp1926
Rp1927
ag1
(g5
S'P\xbfL='
p1928
tp1929
Rp1930
ag1
(g5
S'K\xcfK='
p1931
tp1932
Rp1933
ag1
(g5
S'8T;='
p1934
tp1935
Rp1936
ag1
(g5
S'\xab&A='
p1937
tp1938
Rp1939
ag1
(g5
S'4%H='
p1940
tp1941
Rp1942
ag1
(g5
S'4MG='
p1943
tp1944
Rp1945
ag1
(g5
S'xtH='
p1946
tp1947
Rp1948
ag1
(g5
S'\xdb\xf6>='
p1949
tp1950
Rp1951
ag1
(g5
S"\xc2'B="
p1952
tp1953
Rp1954
ag1
(g5
S'\\E?='
p1955
tp1956
Rp1957
ag1
(g5
S'\xd4\xe6\x98='
p1958
tp1959
Rp1960
ag1
(g5
S'\xbe[\x97='
p1961
tp1962
Rp1963
ag1
(g5
S'\xde*\x95='
p1964
tp1965
Rp1966
ag1
(g5
S'\xd46\x98='
p1967
tp1968
Rp1969
ag1
(g5
S'\xc0\xc6\x95='
p1970
tp1971
Rp1972
ag1
(g5
S'\xf6K\x94='
p1973
tp1974
Rp1975
ag1
(g5
S'\xe1|\x96='
p1976
tp1977
Rp1978
ag1
(g5
S'|\xfb\x96='
p1979
tp1980
Rp1981
ag1
(g5
S'\xc9b\x98='
p1982
tp1983
Rp1984
ag1
(g5
S'j\x8b\x95='
p1985
tp1986
Rp1987
ag1
(g5
S'T\x9a\x82='
p1988
tp1989
Rp1990
ag1
(g5
S'\xce{\x88='
p1991
tp1992
Rp1993
ag1
(g5
S'P\xb6\x80='
p1994
tp1995
Rp1996
ag1
(g5
S'H\xd0\x86='
p1997
tp1998
Rp1999
ag1
(g5
S'b\x99\x8a='
p2000
tp2001
Rp2002
ag1
(g5
S'.8\x8e='
p2003
tp2004
Rp2005
ag1
(g5
S'\xa2\xbb\x80='
p2006
tp2007
Rp2008
ag1
(g5
S'N.\x87='
p2009
tp2010
Rp2011
ag1
(g5
S'\x1a\x10\x86='
p2012
tp2013
Rp2014
ag1
(g5
S'P\x83\x85='
p2015
tp2016
Rp2017
ag1
(g5
S'\xa0Tn='
p2018
tp2019
Rp2020
ag1
(g5
S'4\xf4n='
p2021
tp2022
Rp2023
ag1
(g5
S'\x8c\xedl='
p2024
tp2025
Rp2026
ag1
(g5
S'\xdect='
p2027
tp2028
Rp2029
ag1
(g5
S"@'n="
p2030
tp2031
Rp2032
ag1
(g5
S'\xe5\x15l='
p2033
tp2034
Rp2035
ag1
(g5
S'\xf80t='
p2036
tp2037
Rp2038
ag1
(g5
S'\xf0\xfbo='
p2039
tp2040
Rp2041
ag1
(g5
S'\xbcuw='
p2042
tp2043
Rp2044
ag1
(g5
S'R\xben='
p2045
tp2046
Rp2047
ag1
(g5
S'\x87\xa6\xcb<'
p2048
tp2049
Rp2050
ag1
(g5
S'\xbf\x9d\xa4<'
p2051
tp2052
Rp2053
ag1
(g5
S'\x83\x8b\xaf<'
p2054
tp2055
Rp2056
ag1
(g5
S'\x8dj\x9c<'
p2057
tp2058
Rp2059
ag1
(g5
S'\xd0<\x87<'
p2060
tp2061
Rp2062
ag1
(g5
S'\xadpm<'
p2063
tp2064
Rp2065
ag1
(g5
S'KQ^<'
p2066
tp2067
Rp2068
ag1
(g5
S'\x9d\x01|<'
p2069
tp2070
Rp2071
ag1
(g5
S'\xc8\xad\x7f<'
p2072
tp2073
Rp2074
ag1
(g5
S'~\xb7a<'
p2075
tp2076
Rp2077
ag1
(g5
S'\xc1w\x89='
p2078
tp2079
Rp2080
ag1
(g5
S'\x17\x9e\x80='
p2081
tp2082
Rp2083
ag1
(g5
S'\x02\x1e`='
p2084
tp2085
Rp2086
ag1
(g5
S'bS@='
p2087
tp2088
Rp2089
ag1
(g5
S'`8\x1c='
p2090
tp2091
Rp2092
ag1
(g5
S'\x8d\xf4J='
p2093
tp2094
Rp2095
ag1
(g5
S'\xa0\xaag='
p2096
tp2097
Rp2098
ag1
(g5
S'^\x13[='
p2099
tp2100
Rp2101
ag1
(g5
S'\\R4='
p2102
tp2103
Rp2104
ag1
(g5
S'\x8f\x8e\x1a='
p2105
tp2106
Rp2107
ag1
(g5
S'\x04q\x05='
p2108
tp2109
Rp2110
ag1
(g5
S'\x83\x97&='
p2111
tp2112
Rp2113
ag1
(g5
S'\xd2L9='
p2114
tp2115
Rp2116
ag1
(g5
S'\xee+#='
p2117
tp2118
Rp2119
ag1
(g5
S'\xa6\xc2\x05='
p2120
tp2121
Rp2122
ag1
(g5
S'\xfd\xfc\x00='
p2123
tp2124
Rp2125
ag1
(g5
S'\\\x00\x12='
p2126
tp2127
Rp2128
ag1
(g5
S',\xed\x1d='
p2129
tp2130
Rp2131
ag1
(g5
S'\xca;\x10='
p2132
tp2133
Rp2134
ag1
(g5
S'Q>\x07='
p2135
tp2136
Rp2137
ag1
(g5
S'\xb4"\xf4<'
p2138
tp2139
Rp2140
ag1
(g5
S'^\x9b\x05='
p2141
tp2142
Rp2143
ag1
(g5
S'\xc6\xa7\x06='
p2144
tp2145
Rp2146
ag1
(g5
S'\x08\xd1\x02='
p2147
tp2148
Rp2149
ag1
(g5
S'>\x18\xeb<'
p2150
tp2151
Rp2152
ag1
(g5
S'&[\xee<'
p2153
tp2154
Rp2155
ag1
(g5
S'\xb2\xed\xfa<'
p2156
tp2157
Rp2158
ag1
(g5
S's\xd1\xf5<'
p2159
tp2160
Rp2161
ag1
(g5
S'\x9c\xa8\xec<'
p2162
tp2163
Rp2164
ag1
(g5
S'\xf4\xb3\xf1<'
p2165
tp2166
Rp2167
ag1
(g5
S'q\x9f\xec<'
p2168
tp2169
Rp2170
ag1
(g5
S'\xd7\x81\xf7<'
p2171
tp2172
Rp2173
ag1
(g5
S'&)\x01='
p2174
tp2175
Rp2176
ag1
(g5
S'\x88\xdb\xed<'
p2177
tp2178
Rp2179
ag1
(g5
S':\xd2\xf8<'
p2180
tp2181
Rp2182
ag1
(g5
S'\x88\xb3\xf6<'
p2183
tp2184
Rp2185
ag1
(g5
S'%\x9e\xe7<'
p2186
tp2187
Rp2188
ag1
(g5
S'\x91z\xeb<'
p2189
tp2190
Rp2191
ag1
(g5
S',c\xed<'
p2192
tp2193
Rp2194
ag1
(g5
S'\xda\xfb\xf5<'
p2195
tp2196
Rp2197
ag1
(g5
S'D\x07L='
p2198
tp2199
Rp2200
ag1
(g5
S'\xf1\x0ff='
p2201
tp2202
Rp2203
ag1
(g5
S'\xbf\xb8<='
p2204
tp2205
Rp2206
ag1
(g5
S'\x98\xa9\r='
p2207
tp2208
Rp2209
ag1
(g5
S'\x98A%='
p2210
tp2211
Rp2212
ag1
(g5
S'\xff\x86%='
p2213
tp2214
Rp2215
ag1
(g5
S'Z\x1d"='
p2216
tp2217
Rp2218
ag1
(g5
S'\\\x8b\x14='
p2219
tp2220
Rp2221
ag1
(g5
S'_\x8a2='
p2222
tp2223
Rp2224
ag1
(g5
S'.\x9f\x1a='
p2225
tp2226
Rp2227
ag1
(g5
S'\rc\x9e='
p2228
tp2229
Rp2230
ag1
(g5
S'1\n\x9e='
p2231
tp2232
Rp2233
ag1
(g5
S'\xc2\x07\xa1='
p2234
tp2235
Rp2236
ag1
(g5
S'%\xa6\x99='
p2237
tp2238
Rp2239
ag1
(g5
S'A\xfc\x99='
p2240
tp2241
Rp2242
ag1
(g5
S'\xe3\xbb\x97='
p2243
tp2244
Rp2245
ag1
(g5
S' \xa1\x91='
p2246
tp2247
Rp2248
ag1
(g5
S'\xf3J\x92='
p2249
tp2250
Rp2251
ag1
(g5
S'\x84"\x91='
p2252
tp2253
Rp2254
ag1
(g5
S'\x9d\x11\x94='
p2255
tp2256
Rp2257
ag1
(g5
S'\xf8y\x8e='
p2258
tp2259
Rp2260
ag1
(g5
S'j\x83\x8f='
p2261
tp2262
Rp2263
ag1
(g5
S'\x0e\x8c\x90='
p2264
tp2265
Rp2266
ag1
(g5
S'\xd9M\x8b='
p2267
tp2268
Rp2269
ag1
(g5
S'B\xe2\x8d='
p2270
tp2271
Rp2272
ag1
(g5
S':v\x8e='
p2273
tp2274
Rp2275
ag1
(g5
S'a\x8d\x8a='
p2276
tp2277
Rp2278
ag1
(g5
S'B\xc2\x8d='
p2279
tp2280
Rp2281
ag1
(g5
S'"\xef\x8d='
p2282
tp2283
Rp2284
ag1
(g5
S'\x86\x81\x89='
p2285
tp2286
Rp2287
ag1
(g5
S'hM\xb1='
p2288
tp2289
Rp2290
ag1
(g5
S'F\x07\xac='
p2291
tp2292
Rp2293
ag1
(g5
S'R\x87\xa5='
p2294
tp2295
Rp2296
ag1
(g5
S'X\x18\xab='
p2297
tp2298
Rp2299
ag1
(g5
S'Z%\xb0='
p2300
tp2301
Rp2302
ag1
(g5
S'\xaa\xcf\xa9='
p2303
tp2304
Rp2305
ag1
(g5
S'\xc1V\xa8='
p2306
tp2307
Rp2308
ag1
(g5
S'\xbc`\xac='
p2309
tp2310
Rp2311
ag1
(g5
S'(\x19\xad='
p2312
tp2313
Rp2314
ag1
(g5
S'W\xb1\xa8='
p2315
tp2316
Rp2317
ag1
(g5
S'\xb52\xa9='
p2318
tp2319
Rp2320
ag1
(g5
S'\xce[\xab='
p2321
tp2322
Rp2323
ag1
(g5
S'\xc5\xd8\xa8='
p2324
tp2325
Rp2326
ag1
(g5
S'o\xc1\xa4='
p2327
tp2328
Rp2329
ag1
(g5
S'\x11U\xa5='
p2330
tp2331
Rp2332
ag1
(g5
S'\xb0v\xa4='
p2333
tp2334
Rp2335
ag1
(g5
S'j0\xa6='
p2336
tp2337
Rp2338
ag1
(g5
S'\xe4\x8d\xa3='
p2339
tp2340
Rp2341
ag1
(g5
S'o\xdd\xa5='
p2342
tp2343
Rp2344
ag1
(g5
S'\xf9\x1e\xaa='
p2345
tp2346
Rp2347
ag1
(g5
S'V\xee\xa8='
p2348
tp2349
Rp2350
ag1
(g5
S'T\xa2\xa7='
p2351
tp2352
Rp2353
ag1
(g5
S'\xd7\xba\xa5='
p2354
tp2355
Rp2356
ag1
(g5
S'|Q\xa2='
p2357
tp2358
Rp2359
ag1
(g5
S'\xa71\xa5='
p2360
tp2361
Rp2362
ag1
(g5
S'yz\xa6='
p2363
tp2364
Rp2365
ag1
(g5
S'b\x03\xa6='
p2366
tp2367
Rp2368
ag1
(g5
S'b\xa4\xa4='
p2369
tp2370
Rp2371
ag1
(g5
S'|\x8d\xa6='
p2372
tp2373
Rp2374
ag1
(g5
S'\xd8\xa7\xa6='
p2375
tp2376
Rp2377
ag1
(g5
S"'\xfb\x9e="
p2378
tp2379
Rp2380
ag1
(g5
S'm\xba\xa5='
p2381
tp2382
Rp2383
ag1
(g5
S'\x8a\xa2\x9e='
p2384
tp2385
Rp2386
ag1
(g5
S'\xe1\x0f\xa2='
p2387
tp2388
Rp2389
ag1
(g5
S'4\x04\xa1='
p2390
tp2391
Rp2392
ag1
(g5
S'\xbd\xd8\x9c='
p2393
tp2394
Rp2395
ag1
(g5
S'\x8a/\x9e='
p2396
tp2397
Rp2398
ag1
(g5
S'\xf4T\x9f='
p2399
tp2400
Rp2401
ag1
(g5
S'Ve\xa0='
p2402
tp2403
Rp2404
ag1
(g5
S'p\x11\xa0='
p2405
tp2406
Rp2407
ag1
(g5
S'\xf0U\x94='
p2408
tp2409
Rp2410
ag1
(g5
S'\x02\x9f\x9c='
p2411
tp2412
Rp2413
ag1
(g5
S'\xd8~\x9a='
p2414
tp2415
Rp2416
ag1
(g5
S'\xdb\xb1\x97='
p2417
tp2418
Rp2419
ag1
(g5
S'e\x1b\x98='
p2420
tp2421
Rp2422
ag1
(g5
S'\xd4\x83\x98='
p2423
tp2424
Rp2425
ag1
(g5
S'U\xc4\x9c='
p2426
tp2427
Rp2428
ag1
(g5
S'\x16m\x92='
p2429
tp2430
Rp2431
ag1
(g5
S'\x8e\xf6\x94='
p2432
tp2433
Rp2434
ag1
(g5
S'\x0f<\x96='
p2435
tp2436
Rp2437
ag1
(g5
S'\xc0_\x92='
p2438
tp2439
Rp2440
ag1
(g5
S"'\x1c\x92="
p2441
tp2442
Rp2443
ag1
(g5
S'/*\x8a='
p2444
tp2445
Rp2446
ag1
(g5
S'\x85\x9b\x8e='
p2447
tp2448
Rp2449
ag1
(g5
S'mX\x8c='
p2450
tp2451
Rp2452
ag1
(g5
S'*x\x8c='
p2453
tp2454
Rp2455
ag1
(g5
S'\x80\xf2\x89='
p2456
tp2457
Rp2458
ag1
(g5
S'N&\x8e='
p2459
tp2460
Rp2461
ag1
(g5
S'^\x88\x8e='
p2462
tp2463
Rp2464
ag1
(g5
S'/\x01\x8c='
p2465
tp2466
Rp2467
ag1
(g5
S'\xf4\x11<='
p2468
tp2469
Rp2470
ag1
(g5
S'\xba\xef6='
p2471
tp2472
Rp2473
ag1
(g5
S'\\\xea>='
p2474
tp2475
Rp2476
ag1
(g5
S'L\x163='
p2477
tp2478
Rp2479
ag1
(g5
S'&\xda4='
p2480
tp2481
Rp2482
ag1
(g5
S'2\xf04='
p2483
tp2484
Rp2485
ag1
(g5
S'\xf6\xc24='
p2486
tp2487
Rp2488
ag1
(g5
S'\xfb\xd4K='
p2489
tp2490
Rp2491
ag1
(g5
S'\x10\xff<='
p2492
tp2493
Rp2494
ag1
(g5
S'm?8='
p2495
tp2496
Rp2497
ag1
(g5
S'\x07\x86\x1a='
p2498
tp2499
Rp2500
ag1
(g5
S'\xa1G-='
p2501
tp2502
Rp2503
ag1
(g5
S'\xd4:\x18='
p2504
tp2505
Rp2506
ag1
(g5
S'>\xf4\x17='
p2507
tp2508
Rp2509
ag1
(g5
S'\xe4)\x10='
p2510
tp2511
Rp2512
ag1
(g5
S'cZ\x1a='
p2513
tp2514
Rp2515
ag1
(g5
S'\x00\xb0\x1d='
p2516
tp2517
Rp2518
ag1
(g5
S'L\xd9\x17='
p2519
tp2520
Rp2521
ag1
(g5
S'\x7f!\x14='
p2522
tp2523
Rp2524
ag1
(g5
S'!a"='
p2525
tp2526
Rp2527
ag1
(g5
S'\x81\x13\xe5<'
p2528
tp2529
Rp2530
ag1
(g5
S'jg\xd6<'
p2531
tp2532
Rp2533
ag1
(g5
S'k\xb7\xdb<'
p2534
tp2535
Rp2536
ag1
(g5
S'<P\xd9<'
p2537
tp2538
Rp2539
ag1
(g5
S'\xd2+\xe3<'
p2540
tp2541
Rp2542
ag1
(g5
S'|\xdb\xd5<'
p2543
tp2544
Rp2545
ag1
(g5
S',\xac\xd8<'
p2546
tp2547
Rp2548
ag1
(g5
S'+\xb0\xd6<'
p2549
tp2550
Rp2551
ag1
(g5
S'\xb0\xd3\xdb<'
p2552
tp2553
Rp2554
ag1
(g5
S'\xbe2\xd7<'
p2555
tp2556
Rp2557
ag1
(g5
S'w\xe7\x1d='
p2558
tp2559
Rp2560
ag1
(g5
S'I\xf0&='
p2561
tp2562
Rp2563
ag1
(g5
S'\xfc\xff\x18='
p2564
tp2565
Rp2566
ag1
(g5
S'>\xf9-='
p2567
tp2568
Rp2569
ag1
(g5
S'\xef\x8e@='
p2570
tp2571
Rp2572
ag1
(g5
S'xz.='
p2573
tp2574
Rp2575
ag1
(g5
S'p\x14\x1d='
p2576
tp2577
Rp2578
ag1
(g5
S'7o%='
p2579
tp2580
Rp2581
ag1
(g5
S'\xee\x19&='
p2582
tp2583
Rp2584
ag1
(g5
S"'l?="
p2585
tp2586
Rp2587
ag1
(g5
S'\xd8/\x87='
p2588
tp2589
Rp2590
ag1
(g5
S'\xaa\x17\x82='
p2591
tp2592
Rp2593
ag1
(g5
S'\xb4L\x84='
p2594
tp2595
Rp2596
ag1
(g5
S'\x96\xeb\x8d='
p2597
tp2598
Rp2599
ag1
(g5
S'\xca\xfe}='
p2600
tp2601
Rp2602
ag1
(g5
S'"\xb7v='
p2603
tp2604
Rp2605
ag1
(g5
S'\xd4\xa3\x81='
p2606
tp2607
Rp2608
ag1
(g5
S'\xfe\x19~='
p2609
tp2610
Rp2611
ag1
(g5
S'1@\x82='
p2612
tp2613
Rp2614
ag1
(g5
S'N\x1b\x85='
p2615
tp2616
Rp2617
ag1
(g5
S'\xe1G\x80='
p2618
tp2619
Rp2620
ag1
(g5
S'xe{='
p2621
tp2622
Rp2623
ag1
(g5
S'4o\x81='
p2624
tp2625
Rp2626
ag1
(g5
S'\xe6\xe1\x81='
p2627
tp2628
Rp2629
ag1
(g5
S'D\xc0\x80='
p2630
tp2631
Rp2632
ag1
(g5
S'\xd0\xb8y='
p2633
tp2634
Rp2635
ag1
(g5
S'\xdbb}='
p2636
tp2637
Rp2638
ag1
(g5
S'.\x15\x88='
p2639
tp2640
Rp2641
ag1
(g5
S'\xcf\x18\x84='
p2642
tp2643
Rp2644
ag1
(g5
S'\xca\x1f\x83='
p2645
tp2646
Rp2647
ag1
(g5
S'X\x10\x86='
p2648
tp2649
Rp2650
ag1
(g5
S'\xb2>\x83='
p2651
tp2652
Rp2653
ag1
(g5
S'\x0b\xff~='
p2654
tp2655
Rp2656
ag1
(g5
S'\xe6\x92\x82='
p2657
tp2658
Rp2659
ag1
(g5
S'\x1d\x06\x83='
p2660
tp2661
Rp2662
ag1
(g5
S'\x19\xfe\x83='
p2663
tp2664
Rp2665
ag1
(g5
S'\xda\xf9\x85='
p2666
tp2667
Rp2668
ag1
(g5
S'\xd8\xb7\x83='
p2669
tp2670
Rp2671
ag1
(g5
S'\x86\xd4\x84='
p2672
tp2673
Rp2674
ag1
(g5
S'\xea\xb2\x80='
p2675
tp2676
Rp2677
ag1
(g5
S'\xc5\xeap='
p2678
tp2679
Rp2680
ag1
(g5
S'\xac}m='
p2681
tp2682
Rp2683
ag1
(g5
S'\x18\xe3d='
p2684
tp2685
Rp2686
ag1
(g5
S'\xb2\xdfk='
p2687
tp2688
Rp2689
ag1
(g5
S'dTf='
p2690
tp2691
Rp2692
ag1
(g5
S'\x00;l='
p2693
tp2694
Rp2695
ag1
(g5
S'\xf8\xa9m='
p2696
tp2697
Rp2698
ag1
(g5
S'\xae\x99z='
p2699
tp2700
Rp2701
ag1
(g5
S'\xaa\x0e\x82='
p2702
tp2703
Rp2704
ag1
(g5
S'\xfdL~='
p2705
tp2706
Rp2707
ag1
(g5
S'\x16 i='
p2708
tp2709
Rp2710
ag1
(g5
S'\x9eHx='
p2711
tp2712
Rp2713
ag1
(g5
S'\x15\x96i='
p2714
tp2715
Rp2716
ag1
(g5
S'\xd3\x8bm='
p2717
tp2718
Rp2719
ag1
(g5
S'\xb0\xe6d='
p2720
tp2721
Rp2722
ag1
(g5
S'\xe8\xe1g='
p2723
tp2724
Rp2725
ag1
(g5
S'\x12\x8au='
p2726
tp2727
Rp2728
ag1
(g5
S'\xe2\x08\x84='
p2729
tp2730
Rp2731
ag1
(g5
S'd\x8dg='
p2732
tp2733
Rp2734
ag1
(g5
S',7r='
p2735
tp2736
Rp2737
ag1
(g5
S'X\xc3i='
p2738
tp2739
Rp2740
ag1
(g5
S'\xa0Kn='
p2741
tp2742
Rp2743
ag1
(g5
S'#)n='
p2744
tp2745
Rp2746
ag1
(g5
S';\xeej='
p2747
tp2748
Rp2749
ag1
(g5
S'\x96$k='
p2750
tp2751
Rp2752
ag1
(g5
S'\xcaGo='
p2753
tp2754
Rp2755
ag1
(g5
S'\x02\x9au='
p2756
tp2757
Rp2758
ag1
(g5
S'\xbe\xcbW='
p2759
tp2760
Rp2761
ag1
(g5
S'\xac4p='
p2762
tp2763
Rp2764
ag1
(g5
S'`\x9bi='
p2765
tp2766
Rp2767
ag1
(g5
S'\xf7\xb1e='
p2768
tp2769
Rp2770
ag1
(g5
S'/\x0f`='
p2771
tp2772
Rp2773
ag1
(g5
S'\x8erc='
p2774
tp2775
Rp2776
ag1
(g5
S'\xb6x^='
p2777
tp2778
Rp2779
ag1
(g5
S'\x00+Z='
p2780
tp2781
Rp2782
ag1
(g5
S'\x8dZ^='
p2783
tp2784
Rp2785
ag1
(g5
S'v\x17_='
p2786
tp2787
Rp2788
ag1
(g5
S'|\xd6]='
p2789
tp2790
Rp2791
ag1
(g5
S'\xe1\xcaX='
p2792
tp2793
Rp2794
ag1
(g5
S'\xb3\x95d='
p2795
tp2796
Rp2797
ag1
(g5
S'o\x06U='
p2798
tp2799
Rp2800
ag1
(g5
S'VY_='
p2801
tp2802
Rp2803
ag1
(g5
S'p\xffT='
p2804
tp2805
Rp2806
ag1
(g5
S'DbW='
p2807
tp2808
Rp2809
ag1
(g5
S'\xeb\xd6\\='
p2810
tp2811
Rp2812
ag1
(g5
S'.\nV='
p2813
tp2814
Rp2815
ag1
(g5
S'\xdcS\\='
p2816
tp2817
Rp2818
ag1
(g5
S'V\xdb\\='
p2819
tp2820
Rp2821
ag1
(g5
S'\xe4\xb7^='
p2822
tp2823
Rp2824
ag1
(g5
S'\xef~U='
p2825
tp2826
Rp2827
ag1
(g5
S'&\x99S='
p2828
tp2829
Rp2830
ag1
(g5
S'\xc0$d='
p2831
tp2832
Rp2833
ag1
(g5
S';\x90Y='
p2834
tp2835
Rp2836
ag1
(g5
S'\t@Z='
p2837
tp2838
Rp2839
ag1
(g5
S'h\xb8P='
p2840
tp2841
Rp2842
ag1
(g5
S'\xc8a\\='
p2843
tp2844
Rp2845
ag1
(g5
S'&1i='
p2846
tp2847
Rp2848
ag1
(g5
S'\x8c\xbcb='
p2849
tp2850
Rp2851
ag1
(g5
S'\xd8\xf1X='
p2852
tp2853
Rp2854
ag1
(g5
S'\xddNb='
p2855
tp2856
Rp2857
ag1
(g5
S'``U='
p2858
tp2859
Rp2860
ag1
(g5
S'\xb1YY='
p2861
tp2862
Rp2863
ag1
(g5
S'\xea\xb2Z='
p2864
tp2865
Rp2866
ag1
(g5
S'D\xb8U='
p2867
tp2868
Rp2869
ag1
(g5
S'W\xaaP='
p2870
tp2871
Rp2872
ag1
(g5
S'H\x0b]='
p2873
tp2874
Rp2875
ag1
(g5
S'\xb2RZ='
p2876
tp2877
Rp2878
ag1
(g5
S'\x16\xbeW='
p2879
tp2880
Rp2881
ag1
(g5
S'\xb2iT='
p2882
tp2883
Rp2884
ag1
(g5
S'\xa0\xfbY='
p2885
tp2886
Rp2887
ag1
(g5
S'\xd8WU='
p2888
tp2889
Rp2890
ag1
(g5
S"\xb2']="
p2891
tp2892
Rp2893
ag1
(g5
S'D\xf5T='
p2894
tp2895
Rp2896
ag1
(g5
S'\xc5\x9bV='
p2897
tp2898
Rp2899
ag1
(g5
S'\x86\x9bW='
p2900
tp2901
Rp2902
ag1
(g5
S'\xa4\xaa]='
p2903
tp2904
Rp2905
ag1
(g5
S'\xbc5[='
p2906
tp2907
Rp2908
ag1
(g5
S'\xbe\xb7Y='
p2909
tp2910
Rp2911
ag1
(g5
S'\xa5aV='
p2912
tp2913
Rp2914
ag1
(g5
S'#{^='
p2915
tp2916
Rp2917
ag1
(g5
S'\x84[X='
p2918
tp2919
Rp2920
ag1
(g5
S'\xc6\xd2K='
p2921
tp2922
Rp2923
ag1
(g5
S'C\xe9S='
p2924
tp2925
Rp2926
ag1
(g5
S'g1W='
p2927
tp2928
Rp2929
ag1
(g5
S'\xc5\xb7X='
p2930
tp2931
Rp2932
ag1
(g5
S'*\xecO='
p2933
tp2934
Rp2935
ag1
(g5
S'\xb1\x01\\='
p2936
tp2937
Rp2938
ag1
(g5
S'[WT='
p2939
tp2940
Rp2941
ag1
(g5
S'[XQ='
p2942
tp2943
Rp2944
ag1
(g5
S'\x81\xbcR='
p2945
tp2946
Rp2947
ag1
(g5
S'mpI='
p2948
tp2949
Rp2950
ag1
(g5
S'\xf0\xffF='
p2951
tp2952
Rp2953
ag1
(g5
S'\xac@U='
p2954
tp2955
Rp2956
ag1
(g5
S'9fO='
p2957
tp2958
Rp2959
ag1
(g5
S'\x18\x8cN='
p2960
tp2961
Rp2962
ag1
(g5
S'\xe8\x1aK='
p2963
tp2964
Rp2965
ag1
(g5
S'\x01\xd9F='
p2966
tp2967
Rp2968
ag1
(g5
S'^~K='
p2969
tp2970
Rp2971
ag1
(g5
S'8\xe6O='
p2972
tp2973
Rp2974
ag1
(g5
S'\x16\x87X='
p2975
tp2976
Rp2977
ag1
(g5
S'd\x98P='
p2978
tp2979
Rp2980
ag1
(g5
S'\x04\xcd[='
p2981
tp2982
Rp2983
ag1
(g5
S's\xcdB='
p2984
tp2985
Rp2986
ag1
(g5
S'\xa8\x04O='
p2987
tp2988
Rp2989
ag1
(g5
S'\x12\x02W='
p2990
tp2991
Rp2992
ag1
(g5
S'\xccsO='
p2993
tp2994
Rp2995
ag1
(g5
S'n\xa5@='
p2996
tp2997
Rp2998
ag1
(g5
S'\x8a\xbcH='
p2999
tp3000
Rp3001
ag1
(g5
S'^\xceR='
p3002
tp3003
Rp3004
ag1
(g5
S'&"J='
p3005
tp3006
Rp3007
ag1
(g5
S'\x1e\x18C='
p3008
tp3009
Rp3010
ag1
(g5
S'\x02\xefF='
p3011
tp3012
Rp3013
ag1
(g5
S'_\xb0E='
p3014
tp3015
Rp3016
ag1
(g5
S',fH='
p3017
tp3018
Rp3019
ag1
(g5
S'|\xffM='
p3020
tp3021
Rp3022
ag1
(g5
S'h\xfdL='
p3023
tp3024
Rp3025
ag1
(g5
S'A\x95K='
p3026
tp3027
Rp3028
ag1
(g5
S'\x86\x82Q='
p3029
tp3030
Rp3031
ag1
(g5
S'=\x14S='
p3032
tp3033
Rp3034
ag1
(g5
S'\xb6[R='
p3035
tp3036
Rp3037
ag1
(g5
S'\x14\xbbN='
p3038
tp3039
Rp3040
ag1
(g5
S'\xc95X='
p3041
tp3042
Rp3043
ag1
(g5
S'\xfb\x05K='
p3044
tp3045
Rp3046
ag1
(g5
S'\xea\x92G='
p3047
tp3048
Rp3049
ag1
(g5
S'\x1a\xe1G='
p3050
tp3051
Rp3052
ag1
(g5
S'\xb2\x16?='
p3053
tp3054
Rp3055
ag1
(g5
S'\x805I='
p3056
tp3057
Rp3058
ag1
(g5
S'\x02\xa2L='
p3059
tp3060
Rp3061
ag1
(g5
S'P\x97E='
p3062
tp3063
Rp3064
ag1
(g5
S'\x9a\xa8L='
p3065
tp3066
Rp3067
ag1
(g5
S'\x18\xb9P='
p3068
tp3069
Rp3070
ag1
(g5
S'(SE='
p3071
tp3072
Rp3073
ag1
(g5
S'\xf5\xa6B='
p3074
tp3075
Rp3076
ag1
(g5
S"'\xc0D="
p3077
tp3078
Rp3079
ag1
(g5
S'\x0e\xe3O='
p3080
tp3081
Rp3082
ag1
(g5
S'\x08\x19D='
p3083
tp3084
Rp3085
ag1
(g5
S'@\x8fE='
p3086
tp3087
Rp3088
ag1
(g5
S'G\x08F='
p3089
tp3090
Rp3091
ag1
(g5
S'_\x00Q='
p3092
tp3093
Rp3094
ag1
(g5
S'h\xe1B='
p3095
tp3096
Rp3097
ag1
(g5
S'\xc71D='
p3098
tp3099
Rp3100
ag1
(g5
S'mCN='
p3101
tp3102
Rp3103
ag1
(g5
S'\xc0\xd5Q='
p3104
tp3105
Rp3106
ag1
(g5
S'\x0e\xbcL='
p3107
tp3108
Rp3109
ag1
(g5
S'D;G='
p3110
tp3111
Rp3112
ag1
(g5
S'D\xb1O='
p3113
tp3114
Rp3115
ag1
(g5
S'`\x85L='
p3116
tp3117
Rp3118
ag1
(g5
S'\xd4\xd7O='
p3119
tp3120
Rp3121
ag1
(g5
S'^\xaeH='
p3122
tp3123
Rp3124
ag1
(g5
S'\x9c\xf0L='
p3125
tp3126
Rp3127
ag1
(g5
S'\xa52Q='
p3128
tp3129
Rp3130
ag1
(g5
S'\xe0{J='
p3131
tp3132
Rp3133
ag1
(g5
S'x\xb1]='
p3134
tp3135
Rp3136
ag1
(g5
S'\xb8TQ='
p3137
tp3138
Rp3139
ag1
(g5
S'\x90\x7f^='
p3140
tp3141
Rp3142
ag1
(g5
S'-\xc3`='
p3143
tp3144
Rp3145
ag1
(g5
S'BkZ='
p3146
tp3147
Rp3148
ag1
(g5
S'\xfcWM='
p3149
tp3150
Rp3151
ag1
(g5
S'(\x8bJ='
p3152
tp3153
Rp3154
ag1
(g5
S'\\\xb4V='
p3155
tp3156
Rp3157
ag1
(g5
S'E{R='
p3158
tp3159
Rp3160
ag1
(g5
S'\xc6gT='
p3161
tp3162
Rp3163
ag1
(g5
S'\x14\xacL='
p3164
tp3165
Rp3166
ag1
(g5
S'^\xf9_='
p3167
tp3168
Rp3169
ag1
(g5
S'?8Q='
p3170
tp3171
Rp3172
ag1
(g5
S'r\x1eP='
p3173
tp3174
Rp3175
ag1
(g5
S'X\xe0W='
p3176
tp3177
Rp3178
ag1
(g5
S'v\x90U='
p3179
tp3180
Rp3181
ag1
(g5
S'\xf7<W='
p3182
tp3183
Rp3184
ag1
(g5
S'\xd5\x96U='
p3185
tp3186
Rp3187
ag1
(g5
S'jhE='
p3188
tp3189
Rp3190
ag1
(g5
S'>ZI='
p3191
tp3192
Rp3193
ag1
(g5
S'n\x9b@='
p3194
tp3195
Rp3196
ag1
(g5
S'\x8b\xe2A='
p3197
tp3198
Rp3199
ag1
(g5
S'\x96\xadP='
p3200
tp3201
Rp3202
ag1
(g5
S'$sJ='
p3203
tp3204
Rp3205
ag1
(g5
S'\xc6=L='
p3206
tp3207
Rp3208
ag1
(g5
S'\x92\x94D='
p3209
tp3210
Rp3211
ag1
(g5
S'J\xb8G='
p3212
tp3213
Rp3214
ag1
(g5
S'3\xf4F='
p3215
tp3216
Rp3217
ag1
(g5
S'\xbf0K='
p3218
tp3219
Rp3220
ag1
(g5
S'\xd7\x13G='
p3221
tp3222
Rp3223
ag1
(g5
S'\x9e\xc7L='
p3224
tp3225
Rp3226
ag1
(g5
S'@\xaaH='
p3227
tp3228
Rp3229
ag1
(g5
S'\x9fzK='
p3230
tp3231
Rp3232
ag1
(g5
S'\xeb:@='
p3233
tp3234
Rp3235
ag1
(g5
S'\xb8?L='
p3236
tp3237
Rp3238
ag1
(g5
S'j\x19B='
p3239
tp3240
Rp3241
ag1
(g5
S'p\xf18='
p3242
tp3243
Rp3244
ag1
(g5
S'\xfa\x99?='
p3245
tp3246
Rp3247
ag1
(g5
S'\xaeKE='
p3248
tp3249
Rp3250
ag1
(g5
S'\xaf\xa7L='
p3251
tp3252
Rp3253
ag1
(g5
S'\xbb2<='
p3254
tp3255
Rp3256
ag1
(g5
S'\x04\x85L='
p3257
tp3258
Rp3259
ag1
(g5
S'_\xa9D='
p3260
tp3261
Rp3262
ag1
(g5
S'\xf2\x81K='
p3263
tp3264
Rp3265
ag1
(g5
S'\x9e}P='
p3266
tp3267
Rp3268
ag1
(g5
S'\x14kK='
p3269
tp3270
Rp3271
ag1
(g5
S'\x16\xfeD='
p3272
tp3273
Rp3274
ag1
(g5
S'\x94\xf76='
p3275
tp3276
Rp3277
ag1
(g5
S'\xce\xa85='
p3278
tp3279
Rp3280
ag1
(g5
S'\xc4YG='
p3281
tp3282
Rp3283
ag1
(g5
S'\xda\xd4:='
p3284
tp3285
Rp3286
ag1
(g5
S'\xf3\xf8<='
p3287
tp3288
Rp3289
ag1
(g5
S'\xd5\xa0G='
p3290
tp3291
Rp3292
ag1
(g5
S'\xf7\x98=='
p3293
tp3294
Rp3295
ag1
(g5
S'^\xd1=='
p3296
tp3297
Rp3298
ag1
(g5
S'pV8='
p3299
tp3300
Rp3301
ag1
(g5
S'0\xfbA='
p3302
tp3303
Rp3304
ag1
(g5
S'\xbeI@='
p3305
tp3306
Rp3307
ag1
(g5
S'8h8='
p3308
tp3309
Rp3310
ag1
(g5
S'\xb0k7='
p3311
tp3312
Rp3313
ag1
(g5
S'\x98pN='
p3314
tp3315
Rp3316
ag1
(g5
S'\xbc\x85M='
p3317
tp3318
Rp3319
ag1
(g5
S'\x03\xc4?='
p3320
tp3321
Rp3322
ag1
(g5
S'\xc0@<='
p3323
tp3324
Rp3325
ag1
(g5
S'tP=='
p3326
tp3327
Rp3328
ag1
(g5
S'h\x962='
p3329
tp3330
Rp3331
ag1
(g5
S'\xbcDN='
p3332
tp3333
Rp3334
ag1
(g5
S'\xb0\x85;='
p3335
tp3336
Rp3337
ag1
(g5
S'\xc5?\x93='
p3338
tp3339
Rp3340
ag1
(g5
S'qt\x99='
p3341
tp3342
Rp3343
ag1
(g5
S'\x03<\x9c='
p3344
tp3345
Rp3346
ag1
(g5
S'\x1d\xcd\x9b='
p3347
tp3348
Rp3349
ag1
(g5
S'\xe0\xd3\x9e='
p3350
tp3351
Rp3352
ag1
(g5
S'\x1d\xf4\x9a='
p3353
tp3354
Rp3355
ag1
(g5
S'h\xf7\x93='
p3356
tp3357
Rp3358
ag1
(g5
S'\x06\xb6\x97='
p3359
tp3360
Rp3361
ag1
(g5
S'bc\x99='
p3362
tp3363
Rp3364
ag1
(g5
S'\xff\xce\x99='
p3365
tp3366
Rp3367
ag1
(g5
S'z\x18\x9d='
p3368
tp3369
Rp3370
ag1
(g5
S'\x80\x0c\x9e='
p3371
tp3372
Rp3373
ag1
(g5
S'r\x8a\x9d='
p3374
tp3375
Rp3376
ag1
(g5
S'\xa0Q\x9d='
p3377
tp3378
Rp3379
ag1
(g5
S'\xf4\xac\xa0='
p3380
tp3381
Rp3382
ag1
(g5
S'\xfa:\x9e='
p3383
tp3384
Rp3385
ag1
(g5
S'\xe2\xcd\xa3='
p3386
tp3387
Rp3388
ag1
(g5
S'\xe9\x18\x9e='
p3389
tp3390
Rp3391
ag1
(g5
S'\xb0\x9b\x9c='
p3392
tp3393
Rp3394
ag1
(g5
S'rc\xa1='
p3395
tp3396
Rp3397
ag1
(g5
S'Dr\x18='
p3398
tp3399
Rp3400
ag1
(g5
S'c--='
p3401
tp3402
Rp3403
ag1
(g5
S"\x14\x83'="
p3404
tp3405
Rp3406
ag1
(g5
S'hs4='
p3407
tp3408
Rp3409
ag1
(g5
S'\xdb\x859='
p3410
tp3411
Rp3412
ag1
(g5
S'R\x1e/='
p3413
tp3414
Rp3415
ag1
(g5
S"\x19\xd6'="
p3416
tp3417
Rp3418
ag1
(g5
S"\x1c#'="
p3419
tp3420
Rp3421
ag1
(g5
S'1\xaf2='
p3422
tp3423
Rp3424
ag1
(g5
S'\x07R5='
p3425
tp3426
Rp3427
ag1
(g5
S'\x86\xa2\xe3<'
p3428
tp3429
Rp3430
ag1
(g5
S'\x16=\xe2<'
p3431
tp3432
Rp3433
ag1
(g5
S'\xb0+\xde<'
p3434
tp3435
Rp3436
ag1
(g5
S'R\xea\xd7<'
p3437
tp3438
Rp3439
ag1
(g5
S'GA\xd9<'
p3440
tp3441
Rp3442
ag1
(g5
S'\x9b\xf1\xe0<'
p3443
tp3444
Rp3445
ag1
(g5
S'0\x8c\xe0<'
p3446
tp3447
Rp3448
ag1
(g5
S' M\xdc<'
p3449
tp3450
Rp3451
ag1
(g5
S'\x865\xe0<'
p3452
tp3453
Rp3454
ag1
(g5
S'\xa4\xc2\xe1<'
p3455
tp3456
Rp3457
ag1
(g5
S'\xc1\xee;='
p3458
tp3459
Rp3460
ag1
(g5
S'\x9c\x12?='
p3461
tp3462
Rp3463
ag1
(g5
S'\xddGM='
p3464
tp3465
Rp3466
ag1
(g5
S'\x08\xc3:='
p3467
tp3468
Rp3469
ag1
(g5
S'|\x15=='
p3470
tp3471
Rp3472
ag1
(g5
S'\x93\xd2C='
p3473
tp3474
Rp3475
ag1
(g5
S'\xd0\xabC='
p3476
tp3477
Rp3478
ag1
(g5
S'\x1am_='
p3479
tp3480
Rp3481
ag1
(g5
S'o\xd7:='
p3482
tp3483
Rp3484
ag1
(g5
S'\x80\x153='
p3485
tp3486
Rp3487
ag1
(g5
S'\xf9\xf2}='
p3488
tp3489
Rp3490
ag1
(g5
S'P\xf1t='
p3491
tp3492
Rp3493
ag1
(g5
S'\xb49}='
p3494
tp3495
Rp3496
ag1
(g5
S'\x87{{='
p3497
tp3498
Rp3499
ag1
(g5
S'\xac&\x80='
p3500
tp3501
Rp3502
ag1
(g5
S'\xd1Ez='
p3503
tp3504
Rp3505
ag1
(g5
S'O\xfd\x82='
p3506
tp3507
Rp3508
ag1
(g5
S'Et|='
p3509
tp3510
Rp3511
ag1
(g5
S'0\xdb\x82='
p3512
tp3513
Rp3514
ag1
(g5
S'7\xe6\x7f='
p3515
tp3516
Rp3517
ag1
(g5
S'Q\xeet='
p3518
tp3519
Rp3520
ag1
(g5
S'\x1b\xf7x='
p3521
tp3522
Rp3523
ag1
(g5
S'\x1fEu='
p3524
tp3525
Rp3526
ag1
(g5
S'\xf7c}='
p3527
tp3528
Rp3529
ag1
(g5
S'\x91Ez='
p3530
tp3531
Rp3532
ag1
(g5
S'\xa2~r='
p3533
tp3534
Rp3535
ag1
(g5
S'\x8d8\x7f='
p3536
tp3537
Rp3538
ag1
(g5
S'A }='
p3539
tp3540
Rp3541
ag1
(g5
S'\x83Hy='
p3542
tp3543
Rp3544
ag1
(g5
S'\xa8]{='
p3545
tp3546
Rp3547
ag1
(g5
S'\x92Ud='
p3548
tp3549
Rp3550
ag1
(g5
S'\x12\xc4j='
p3551
tp3552
Rp3553
ag1
(g5
S'\x8c9s='
p3554
tp3555
Rp3556
ag1
(g5
S'\xedui='
p3557
tp3558
Rp3559
ag1
(g5
S'X\xedl='
p3560
tp3561
Rp3562
ag1
(g5
S'&\x9co='
p3563
tp3564
Rp3565
ag1
(g5
S'uBm='
p3566
tp3567
Rp3568
ag1
(g5
S'\xc4Pk='
p3569
tp3570
Rp3571
ag1
(g5
S'b\xdaf='
p3572
tp3573
Rp3574
ag1
(g5
S'.\xc2q='
p3575
tp3576
Rp3577
ag1
(g5
S'\xbbM\x80='
p3578
tp3579
Rp3580
ag1
(g5
S'\x0fHq='
p3581
tp3582
Rp3583
ag1
(g5
S'\x0fVl='
p3584
tp3585
Rp3586
ag1
(g5
S'2\xdat='
p3587
tp3588
Rp3589
ag1
(g5
S'+\xbas='
p3590
tp3591
Rp3592
ag1
(g5
S'\xe0jo='
p3593
tp3594
Rp3595
ag1
(g5
S'\xa8_\\='
p3596
tp3597
Rp3598
ag1
(g5
S'1\x8e{='
p3599
tp3600
Rp3601
ag1
(g5
S'\xe9Bd='
p3602
tp3603
Rp3604
ag1
(g5
S'\xdcNt='
p3605
tp3606
Rp3607
ag1
(g5
S']\x1ck='
p3608
tp3609
Rp3610
ag1
(g5
S',~r='
p3611
tp3612
Rp3613
ag1
(g5
S'\x88\xf0p='
p3614
tp3615
Rp3616
ag1
(g5
S'\xa0Zz='
p3617
tp3618
Rp3619
ag1
(g5
S'\x81\x9fp='
p3620
tp3621
Rp3622
ag1
(g5
S'\x1e\xbbh='
p3623
tp3624
Rp3625
ag1
(g5
S'\x1e4g='
p3626
tp3627
Rp3628
ag1
(g5
S'\xdd\x89n='
p3629
tp3630
Rp3631
ag1
(g5
S' \x01x='
p3632
tp3633
Rp3634
ag1
(g5
S'0\xe5w='
p3635
tp3636
Rp3637
ag1
(g5
S'\x0e\xf1r='
p3638
tp3639
Rp3640
ag1
(g5
S'7zp='
p3641
tp3642
Rp3643
ag1
(g5
S'\xb7Xt='
p3644
tp3645
Rp3646
ag1
(g5
S'Zc\x80='
p3647
tp3648
Rp3649
ag1
(g5
S'\xe2\x08l='
p3650
tp3651
Rp3652
ag1
(g5
S'4\xa5|='
p3653
tp3654
Rp3655
ag1
(g5
S'\xa5\x14u='
p3656
tp3657
Rp3658
ag1
(g5
S'\xca\xbdk='
p3659
tp3660
Rp3661
ag1
(g5
S'\x1a\xa6r='
p3662
tp3663
Rp3664
ag1
(g5
S'\x8eZo='
p3665
tp3666
Rp3667
ag1
(g5
S'\x18On='
p3668
tp3669
Rp3670
ag1
(g5
S'p\xcef='
p3671
tp3672
Rp3673
ag1
(g5
S'V\xedn='
p3674
tp3675
Rp3676
ag1
(g5
S'\x04Rm='
p3677
tp3678
Rp3679
ag1
(g5
S'\xd75j='
p3680
tp3681
Rp3682
ag1
(g5
S'\xdc[n='
p3683
tp3684
Rp3685
ag1
(g5
S',\x90f='
p3686
tp3687
Rp3688
ag1
(g5
S'\x0b@o='
p3689
tp3690
Rp3691
ag1
(g5
S'\x80\x0bm='
p3692
tp3693
Rp3694
ag1
(g5
S'0\x91m='
p3695
tp3696
Rp3697
ag1
(g5
S'$\xad`='
p3698
tp3699
Rp3700
ag1
(g5
S'`\xe7e='
p3701
tp3702
Rp3703
ag1
(g5
S'*\xc9]='
p3704
tp3705
Rp3706
ag1
(g5
S'\xea\rY='
p3707
tp3708
Rp3709
ag1
(g5
S'\x8a\x9f^='
p3710
tp3711
Rp3712
ag1
(g5
S'\xdb\xe0f='
p3713
tp3714
Rp3715
ag1
(g5
S'\xfcr`='
p3716
tp3717
Rp3718
ag1
(g5
S'ld\\='
p3719
tp3720
Rp3721
ag1
(g5
S'`\xdam='
p3722
tp3723
Rp3724
ag1
(g5
S'\xdcr[='
p3725
tp3726
Rp3727
ag1
(g5
S'^\xd9f='
p3728
tp3729
Rp3730
ag1
(g5
S'\x06\xe2g='
p3731
tp3732
Rp3733
ag1
(g5
S'\xbe\x81a='
p3734
tp3735
Rp3736
ag1
(g5
S'^\xa6l='
p3737
tp3738
Rp3739
ag1
(g5
S'(\x0b\\='
p3740
tp3741
Rp3742
ag1
(g5
S'\xf0\x0bb='
p3743
tp3744
Rp3745
ag1
(g5
S'y\xbbl='
p3746
tp3747
Rp3748
ag1
(g5
S'\xfa1a='
p3749
tp3750
Rp3751
ag1
(g5
S'D\xb3Z='
p3752
tp3753
Rp3754
ag1
(g5
S'n|k='
p3755
tp3756
Rp3757
ag1
(g5
S'\xdaH`='
p3758
tp3759
Rp3760
ag1
(g5
S'l\xf9`='
p3761
tp3762
Rp3763
ag1
(g5
S'\x13\x04a='
p3764
tp3765
Rp3766
ag1
(g5
S'\xf8Ub='
p3767
tp3768
Rp3769
ag1
(g5
S'\x8eGf='
p3770
tp3771
Rp3772
ag1
(g5
S'Ze[='
p3773
tp3774
Rp3775
ag1
(g5
S'|\xf7b='
p3776
tp3777
Rp3778
ag1
(g5
S'\x08\xef`='
p3779
tp3780
Rp3781
ag1
(g5
S'\x825]='
p3782
tp3783
Rp3784
ag1
(g5
S'|\xb8]='
p3785
tp3786
Rp3787
ag1
(g5
S':\ti='
p3788
tp3789
Rp3790
ag1
(g5
S'\x138d='
p3791
tp3792
Rp3793
ag1
(g5
S'<Va='
p3794
tp3795
Rp3796
ag1
(g5
S'l<[='
p3797
tp3798
Rp3799
ag1
(g5
S'\xad\xbb\\='
p3800
tp3801
Rp3802
ag1
(g5
S'\xa47j='
p3803
tp3804
Rp3805
ag1
(g5
S'\xe6\xc7e='
p3806
tp3807
Rp3808
ag1
(g5
S'\x9c\\f='
p3809
tp3810
Rp3811
ag1
(g5
S'S\xc1]='
p3812
tp3813
Rp3814
ag1
(g5
S'\xaaFe='
p3815
tp3816
Rp3817
ag1
(g5
S'v\xa3\\='
p3818
tp3819
Rp3820
ag1
(g5
S'0\xc0U='
p3821
tp3822
Rp3823
ag1
(g5
S'B\x8d]='
p3824
tp3825
Rp3826
ag1
(g5
S'\x1c7^='
p3827
tp3828
Rp3829
ag1
(g5
S',"`='
p3830
tp3831
Rp3832
ag1
(g5
S'\xe0\xd2X='
p3833
tp3834
Rp3835
ag1
(g5
S'<\xf6U='
p3836
tp3837
Rp3838
ag1
(g5
S'\x14\xb4U='
p3839
tp3840
Rp3841
ag1
(g5
S'&R[='
p3842
tp3843
Rp3844
ag1
(g5
S'\xd0\xe9b='
p3845
tp3846
Rp3847
ag1
(g5
S'\x17Yb='
p3848
tp3849
Rp3850
ag1
(g5
S'\xc8`U='
p3851
tp3852
Rp3853
ag1
(g5
S'\xf0V_='
p3854
tp3855
Rp3856
ag1
(g5
S'T\xa3U='
p3857
tp3858
Rp3859
ag1
(g5
S'\x1ctP='
p3860
tp3861
Rp3862
ag1
(g5
S'H\x1b]='
p3863
tp3864
Rp3865
ag1
(g5
S'\xb5\xd1P='
p3866
tp3867
Rp3868
ag1
(g5
S'\xa0\xdd[='
p3869
tp3870
Rp3871
ag1
(g5
S'^z]='
p3872
tp3873
Rp3874
ag1
(g5
S'$\xfdZ='
p3875
tp3876
Rp3877
ag1
(g5
S'\xfa\xfbY='
p3878
tp3879
Rp3880
ag1
(g5
S'\xd2\xfdR='
p3881
tp3882
Rp3883
ag1
(g5
S':\x1cT='
p3884
tp3885
Rp3886
ag1
(g5
S'>\x90_='
p3887
tp3888
Rp3889
ag1
(g5
S'\xad\xd0e='
p3890
tp3891
Rp3892
ag1
(g5
S'\xf6\xaeO='
p3893
tp3894
Rp3895
ag1
(g5
S'I\xd6L='
p3896
tp3897
Rp3898
ag1
(g5
S'd_R='
p3899
tp3900
Rp3901
ag1
(g5
S'\xfa\xaeb='
p3902
tp3903
Rp3904
ag1
(g5
S'\x92ua='
p3905
tp3906
Rp3907
ag1
(g5
S'\x92\xf1M='
p3908
tp3909
Rp3910
ag1
(g5
S'\x98\xa7N='
p3911
tp3912
Rp3913
ag1
(g5
S',\xadD='
p3914
tp3915
Rp3916
ag1
(g5
S'\x88\x94T='
p3917
tp3918
Rp3919
ag1
(g5
S'\xa4[^='
p3920
tp3921
Rp3922
ag1
(g5
S'\xb2\xb5Y='
p3923
tp3924
Rp3925
ag1
(g5
S'\xbf\x06P='
p3926
tp3927
Rp3928
ag1
(g5
S'j\xdc[='
p3929
tp3930
Rp3931
ag1
(g5
S'\xdf)M='
p3932
tp3933
Rp3934
ag1
(g5
S'\x00\x80W='
p3935
tp3936
Rp3937
ag1
(g5
S'l\xaaM='
p3938
tp3939
Rp3940
ag1
(g5
S'<?U='
p3941
tp3942
Rp3943
ag1
(g5
S'\x92yM='
p3944
tp3945
Rp3946
ag1
(g5
S'>\xeeX='
p3947
tp3948
Rp3949
ag1
(g5
S'\xfd(R='
p3950
tp3951
Rp3952
ag1
(g5
S'\xf6eO='
p3953
tp3954
Rp3955
ag1
(g5
S'\x84\xefK='
p3956
tp3957
Rp3958
ag1
(g5
S'\xdaYS='
p3959
tp3960
Rp3961
ag1
(g5
S'JyY='
p3962
tp3963
Rp3964
ag1
(g5
S'\x14\x89J='
p3965
tp3966
Rp3967
ag1
(g5
S'<\xdab='
p3968
tp3969
Rp3970
ag1
(g5
S'\xe2\x0f`='
p3971
tp3972
Rp3973
ag1
(g5
S'\x14\xd9U='
p3974
tp3975
Rp3976
ag1
(g5
S'\x0c\xd9Y='
p3977
tp3978
Rp3979
ag1
(g5
S'\x12\x8e]='
p3980
tp3981
Rp3982
ag1
(g5
S'\x98\x1bW='
p3983
tp3984
Rp3985
ag1
(g5
S'@>c='
p3986
tp3987
Rp3988
ag1
(g5
S'}\x80N='
p3989
tp3990
Rp3991
ag1
(g5
S"'\x97Q="
p3992
tp3993
Rp3994
ag1
(g5
S'\x17\xf0O='
p3995
tp3996
Rp3997
ag1
(g5
S'&gO='
p3998
tp3999
Rp4000
ag1
(g5
S'V\xaeM='
p4001
tp4002
Rp4003
ag1
(g5
S'\x94CW='
p4004
tp4005
Rp4006
ag1
(g5
S'\x06\xb4R='
p4007
tp4008
Rp4009
ag1
(g5
S'\x80\nO='
p4010
tp4011
Rp4012
ag1
(g5
S'\xe6\xc5G='
p4013
tp4014
Rp4015
ag1
(g5
S']dO='
p4016
tp4017
Rp4018
ag1
(g5
S';\xb7X='
p4019
tp4020
Rp4021
ag1
(g5
S')\x82R='
p4022
tp4023
Rp4024
ag1
(g5
S'\xfe\xe2O='
p4025
tp4026
Rp4027
ag1
(g5
S'H\x11V='
p4028
tp4029
Rp4030
ag1
(g5
S'\x13\x0bX='
p4031
tp4032
Rp4033
ag1
(g5
S'\x06)U='
p4034
tp4035
Rp4036
ag1
(g5
S'z*P='
p4037
tp4038
Rp4039
ag1
(g5
S'\xdc\x1bY='
p4040
tp4041
Rp4042
ag1
(g5
S'\xb9\xa3P='
p4043
tp4044
Rp4045
ag1
(g5
S'6\xc6O='
p4046
tp4047
Rp4048
ag1
(g5
S'\x86\xdeC='
p4049
tp4050
Rp4051
ag1
(g5
S'\x05_T='
p4052
tp4053
Rp4054
ag1
(g5
S'\x90IW='
p4055
tp4056
Rp4057
ag1
(g5
S'\xf0[J='
p4058
tp4059
Rp4060
ag1
(g5
S'\x94\xd2F='
p4061
tp4062
Rp4063
ag1
(g5
S'=\x97C='
p4064
tp4065
Rp4066
ag1
(g5
S'\x81\xb8I='
p4067
tp4068
Rp4069
ag1
(g5
S'~gT='
p4070
tp4071
Rp4072
ag1
(g5
S'\x88\xfaF='
p4073
tp4074
Rp4075
ag1
(g5
S'\tkN='
p4076
tp4077
Rp4078
ag1
(g5
S'\xfa\xd1I='
p4079
tp4080
Rp4081
ag1
(g5
S'@pD='
p4082
tp4083
Rp4084
ag1
(g5
S'\x19\xc5G='
p4085
tp4086
Rp4087
ag1
(g5
S'\xb8\x96K='
p4088
tp4089
Rp4090
ag1
(g5
S'\x9az@='
p4091
tp4092
Rp4093
ag1
(g5
S'n\xe6L='
p4094
tp4095
Rp4096
ag1
(g5
S'.jC='
p4097
tp4098
Rp4099
ag1
(g5
S'r\x8cH='
p4100
tp4101
Rp4102
ag1
(g5
S'\x8e\xc3<='
p4103
tp4104
Rp4105
ag1
(g5
S'zLC='
p4106
tp4107
Rp4108
ag1
(g5
S'-\x19E='
p4109
tp4110
Rp4111
ag1
(g5
S'\x02\xc5I='
p4112
tp4113
Rp4114
ag1
(g5
S'r$;='
p4115
tp4116
Rp4117
ag1
(g5
S'\xe4*J='
p4118
tp4119
Rp4120
ag1
(g5
S'\x12\xd1B='
p4121
tp4122
Rp4123
ag1
(g5
S'\x84\x1dK='
p4124
tp4125
Rp4126
ag1
(g5
S'\xdb(J='
p4127
tp4128
Rp4129
ag1
(g5
S'\x9cWD='
p4130
tp4131
Rp4132
ag1
(g5
S'\xa7\xa4B='
p4133
tp4134
Rp4135
ag1
(g5
S'\xf0\xc6N='
p4136
tp4137
Rp4138
ag1
(g5
S'\xf4\x9dR='
p4139
tp4140
Rp4141
ag1
(g5
S'\xdd\x06O='
p4142
tp4143
Rp4144
ag1
(g5
S'qhJ='
p4145
tp4146
Rp4147
ag1
(g5
S'bm\\='
p4148
tp4149
Rp4150
ag1
(g5
S'l\xdc^='
p4151
tp4152
Rp4153
ag1
(g5
S'\xea\xc0R='
p4154
tp4155
Rp4156
ag1
(g5
S'l\xeaU='
p4157
tp4158
Rp4159
ag1
(g5
S'ntT='
p4160
tp4161
Rp4162
ag1
(g5
S'~\xe3R='
p4163
tp4164
Rp4165
ag1
(g5
S'V\x11_='
p4166
tp4167
Rp4168
ag1
(g5
S'\\LZ='
p4169
tp4170
Rp4171
ag1
(g5
S')\x08Z='
p4172
tp4173
Rp4174
ag1
(g5
S'N\x1dR='
p4175
tp4176
Rp4177
ag1
(g5
S'2 U='
p4178
tp4179
Rp4180
ag1
(g5
S'\x94(d='
p4181
tp4182
Rp4183
ag1
(g5
S'\x97\\_='
p4184
tp4185
Rp4186
ag1
(g5
S'\xce\x11W='
p4187
tp4188
Rp4189
ag1
(g5
S'\x9a\xa3Z='
p4190
tp4191
Rp4192
ag1
(g5
S'\x98\x01S='
p4193
tp4194
Rp4195
ag1
(g5
S'\x839Y='
p4196
tp4197
Rp4198
ag1
(g5
S'({\\='
p4199
tp4200
Rp4201
ag1
(g5
S'\xfb\xdbU='
p4202
tp4203
Rp4204
ag1
(g5
S'\xb8zR='
p4205
tp4206
Rp4207
ag1
(g5
S'NM@='
p4208
tp4209
Rp4210
ag1
(g5
S'\x9d\xa9G='
p4211
tp4212
Rp4213
ag1
(g5
S'\xc1\x92<='
p4214
tp4215
Rp4216
ag1
(g5
S'\x16\xac=='
p4217
tp4218
Rp4219
ag1
(g5
S'\xdb\xd5B='
p4220
tp4221
Rp4222
ag1
(g5
S'\xeb\xb5=='
p4223
tp4224
Rp4225
ag1
(g5
S'*\x1d<='
p4226
tp4227
Rp4228
ag1
(g5
S'\x1c\x89N='
p4229
tp4230
Rp4231
ag1
(g5
S'\xe2\x06<='
p4232
tp4233
Rp4234
ag1
(g5
S'^\x8a?='
p4235
tp4236
Rp4237
ag1
(g5
S'\xa6:\x8d='
p4238
tp4239
Rp4240
ag1
(g5
S'b\xc9\x92='
p4241
tp4242
Rp4243
ag1
(g5
S'*)\x93='
p4244
tp4245
Rp4246
ag1
(g5
S'\xafJ\x94='
p4247
tp4248
Rp4249
ag1
(g5
S'\xc9\x88\x96='
p4250
tp4251
Rp4252
ag1
(g5
S'\xe8\x7f\x98='
p4253
tp4254
Rp4255
ag1
(g5
S'Fc\x96='
p4256
tp4257
Rp4258
ag1
(g5
S'Z\x03\x8e='
p4259
tp4260
Rp4261
ag1
(g5
S'*Q\x94='
p4262
tp4263
Rp4264
ag1
(g5
S'\xf06\x96='
p4265
tp4266
Rp4267
ag1
(g5
S'\xfe\xfd\x80='
p4268
tp4269
Rp4270
ag1
(g5
S'3\xef\x85='
p4271
tp4272
Rp4273
ag1
(g5
S'\x9c\xd2}='
p4274
tp4275
Rp4276
ag1
(g5
S'\xb8\x90}='
p4277
tp4278
Rp4279
ag1
(g5
S'-f\x8a='
p4280
tp4281
Rp4282
ag1
(g5
S'\x18k\x84='
p4283
tp4284
Rp4285
ag1
(g5
S'\xe6$\x84='
p4286
tp4287
Rp4288
ag1
(g5
S'\xaf\xa5\x82='
p4289
tp4290
Rp4291
ag1
(g5
S'a\xeb\x83='
p4292
tp4293
Rp4294
ag1
(g5
S'M\x12\x85='
p4295
tp4296
Rp4297
ag1
(g5
S'-\xb9g='
p4298
tp4299
Rp4300
ag1
(g5
S'\xb6[j='
p4301
tp4302
Rp4303
ag1
(g5
S'P>i='
p4304
tp4305
Rp4306
ag1
(g5
S'\x04bn='
p4307
tp4308
Rp4309
ag1
(g5
S'`\xdfm='
p4310
tp4311
Rp4312
ag1
(g5
S'\xee\x13t='
p4313
tp4314
Rp4315
ag1
(g5
S'\x8a\\n='
p4316
tp4317
Rp4318
ag1
(g5
S'c\xafh='
p4319
tp4320
Rp4321
ag1
(g5
S'\x95Mh='
p4322
tp4323
Rp4324
ag1
(g5
S'\xf0en='
p4325
tp4326
Rp4327
ag1
(g5
S'V\x02J<'
p4328
tp4329
Rp4330
ag1
(g5
S'dwH<'
p4331
tp4332
Rp4333
ag1
(g5
S'c\xe0J<'
p4334
tp4335
Rp4336
ag1
(g5
S'+\xb9I<'
p4337
tp4338
Rp4339
ag1
(g5
S'8\xb4F<'
p4340
tp4341
Rp4342
ag1
(g5
S'RwH<'
p4343
tp4344
Rp4345
ag1
(g5
S'q\xabD<'
p4346
tp4347
Rp4348
ag1
(g5
S'\xdf\xbdF<'
p4349
tp4350
Rp4351
ag1
(g5
S'\x13\x8aB<'
p4352
tp4353
Rp4354
ag1
(g5
S'\x8b\xb2F<'
p4355
tp4356
Rp4357
ag1
(g5
S'VV\xfb<'
p4358
tp4359
Rp4360
ag1
(g5
S'\xe9%\x07='
p4361
tp4362
Rp4363
ag1
(g5
S'\x07\xec\xef<'
p4364
tp4365
Rp4366
ag1
(g5
S']\xec\xf8<'
p4367
tp4368
Rp4369
ag1
(g5
S'\xb7V\xde<'
p4370
tp4371
Rp4372
ag1
(g5
S'\xf0\x06\xf8<'
p4373
tp4374
Rp4375
ag1
(g5
S'\xc1\xe7\xe3<'
p4376
tp4377
Rp4378
ag1
(g5
S'T\n\xea<'
p4379
tp4380
Rp4381
ag1
(g5
S'\x99c\xde<'
p4382
tp4383
Rp4384
ag1
(g5
S'j\xac\xe8<'
p4385
tp4386
Rp4387
ag1
(g5
S'\xfe%\xe6<'
p4388
tp4389
Rp4390
ag1
(g5
S'\t\xbc\xe2<'
p4391
tp4392
Rp4393
ag1
(g5
S'Iw\xe5<'
p4394
tp4395
Rp4396
ag1
(g5
S'\xec\xcf\xe1<'
p4397
tp4398
Rp4399
ag1
(g5
S'\xeeR\xeb<'
p4400
tp4401
Rp4402
ag1
(g5
S'\xc2R\xde<'
p4403
tp4404
Rp4405
ag1
(g5
S'\xa4\xd7\xda<'
p4406
tp4407
Rp4408
ag1
(g5
S'U\x03\xe6<'
p4409
tp4410
Rp4411
ag1
(g5
S'~J\xdd<'
p4412
tp4413
Rp4414
ag1
(g5
S'w\xbd\xdb<'
p4415
tp4416
Rp4417
ag1
(g5
S'\xa0\xd6\xcb<'
p4418
tp4419
Rp4420
ag1
(g5
S':\xef\xd7<'
p4421
tp4422
Rp4423
ag1
(g5
S'\xfct\xd0<'
p4424
tp4425
Rp4426
ag1
(g5
S'n\xd0\xcd<'
p4427
tp4428
Rp4429
ag1
(g5
S'\xc4\xe3\xd0<'
p4430
tp4431
Rp4432
ag1
(g5
S'\xc0w\xd0<'
p4433
tp4434
Rp4435
ag1
(g5
S'N\xca\xd1<'
p4436
tp4437
Rp4438
ag1
(g5
S'\xf8\xf0\xd1<'
p4439
tp4440
Rp4441
ag1
(g5
S'%\xea\xd4<'
p4442
tp4443
Rp4444
ag1
(g5
S'\n\xbe\xcf<'
p4445
tp4446
Rp4447
ag1
(g5
S'\xca\xf1\xd6<'
p4448
tp4449
Rp4450
ag1
(g5
S'\xf6\xfa\xde<'
p4451
tp4452
Rp4453
ag1
(g5
S'\x0f\x99\xd9<'
p4454
tp4455
Rp4456
ag1
(g5
S'\x18\x14\xd7<'
p4457
tp4458
Rp4459
ag1
(g5
S'C\xbc\xd0<'
p4460
tp4461
Rp4462
ag1
(g5
S'\xbc\xad\xd1<'
p4463
tp4464
Rp4465
ag1
(g5
S'\r\xa4\xd4<'
p4466
tp4467
Rp4468
ag1
(g5
S':\x8d\xdf<'
p4469
tp4470
Rp4471
ag1
(g5
S'\xbc\x17\xd0<'
p4472
tp4473
Rp4474
ag1
(g5
S'hn\xcd<'
p4475
tp4476
Rp4477
ag1
(g5
S'\xe0\xeb\n='
p4478
tp4479
Rp4480
ag1
(g5
S'9v\x1a='
p4481
tp4482
Rp4483
ag1
(g5
S'-\x88\x07='
p4484
tp4485
Rp4486
ag1
(g5
S'\xa5\xd3\n='
p4487
tp4488
Rp4489
ag1
(g5
S'\x04\x85\x15='
p4490
tp4491
Rp4492
ag1
(g5
S'\xe6\x86\x00='
p4493
tp4494
Rp4495
ag1
(g5
S'\x83"\x0b='
p4496
tp4497
Rp4498
ag1
(g5
S'4\x99\xef<'
p4499
tp4500
Rp4501
ag1
(g5
S'Q\xaa6='
p4502
tp4503
Rp4504
ag1
(g5
S'\xb5\xdc\xed<'
p4505
tp4506
Rp4507
ag1
(g5
S'\x85\xed\x8c='
p4508
tp4509
Rp4510
ag1
(g5
S'\x96\xaf\x8b='
p4511
tp4512
Rp4513
ag1
(g5
S'K\xb9\x83='
p4514
tp4515
Rp4516
ag1
(g5
S'hy\x8a='
p4517
tp4518
Rp4519
ag1
(g5
S'\xc4W\x84='
p4520
tp4521
Rp4522
ag1
(g5
S'zY\x8c='
p4523
tp4524
Rp4525
ag1
(g5
S'\x11\xc7\x87='
p4526
tp4527
Rp4528
ag1
(g5
S'0\xb4\x89='
p4529
tp4530
Rp4531
ag1
(g5
S'\xa3\x8e\x85='
p4532
tp4533
Rp4534
ag1
(g5
S'\x94u\x88='
p4535
tp4536
Rp4537
ag1
(g5
S'\x9c6\x82='
p4538
tp4539
Rp4540
ag1
(g5
S'\x0bZ\x84='
p4541
tp4542
Rp4543
ag1
(g5
S'\xe00\x87='
p4544
tp4545
Rp4546
ag1
(g5
S'86|='
p4547
tp4548
Rp4549
ag1
(g5
S'\x1e6\x81='
p4550
tp4551
Rp4552
ag1
(g5
S'\xae\x19\x82='
p4553
tp4554
Rp4555
ag1
(g5
S'*]\x80='
p4556
tp4557
Rp4558
ag1
(g5
S'\t\xd3|='
p4559
tp4560
Rp4561
ag1
(g5
S'\xa0I\x80='
p4562
tp4563
Rp4564
ag1
(g5
S'`"\x80='
p4565
tp4566
Rp4567
ag1
(g5
S'\xf1\x94\xa1='
p4568
tp4569
Rp4570
ag1
(g5
S'\xae\x14\xa1='
p4571
tp4572
Rp4573
ag1
(g5
S'/e\x9c='
p4574
tp4575
Rp4576
ag1
(g5
S',h\xa1='
p4577
tp4578
Rp4579
ag1
(g5
S'\xb1y\x9c='
p4580
tp4581
Rp4582
ag1
(g5
S'\xe6\x07\xa4='
p4583
tp4584
Rp4585
ag1
(g5
S'\x85S\xa2='
p4586
tp4587
Rp4588
ag1
(g5
S'\xae\xae\x9b='
p4589
tp4590
Rp4591
ag1
(g5
S'\x0f\x10\xa1='
p4592
tp4593
Rp4594
ag1
(g5
S'\xd0\x16\x9e='
p4595
tp4596
Rp4597
ag1
(g5
S'[\x0b\x9f='
p4598
tp4599
Rp4600
ag1
(g5
S'}C\x9a='
p4601
tp4602
Rp4603
ag1
(g5
S'\xce\xb4\x9f='
p4604
tp4605
Rp4606
ag1
(g5
S'\xeaP\xa0='
p4607
tp4608
Rp4609
ag1
(g5
S'\x1a\x1b\x9e='
p4610
tp4611
Rp4612
ag1
(g5
S'J9\xa1='
p4613
tp4614
Rp4615
ag1
(g5
S'M\xe2\x9e='
p4616
tp4617
Rp4618
ag1
(g5
S'L\xff\x9b='
p4619
tp4620
Rp4621
ag1
(g5
S'\x88\xcf\x9e='
p4622
tp4623
Rp4624
ag1
(g5
S'\x84Y\xa0='
p4625
tp4626
Rp4627
ag1
(g5
S'o;\x9e='
p4628
tp4629
Rp4630
ag1
(g5
S'S\xb8\x9f='
p4631
tp4632
Rp4633
ag1
(g5
S'(/\x9f='
p4634
tp4635
Rp4636
ag1
(g5
S'\x81\xc4\xa0='
p4637
tp4638
Rp4639
ag1
(g5
S'&\xf2\x9b='
p4640
tp4641
Rp4642
ag1
(g5
S'x\xb5\x9c='
p4643
tp4644
Rp4645
ag1
(g5
S'\xc0\x06\x9d='
p4646
tp4647
Rp4648
ag1
(g5
S'\x82\x0b\x9d='
p4649
tp4650
Rp4651
ag1
(g5
S'\x9f\xfa\xa0='
p4652
tp4653
Rp4654
ag1
(g5
S'x1\xa1='
p4655
tp4656
Rp4657
ag1
(g5
S';\x86\x9a='
p4658
tp4659
Rp4660
ag1
(g5
S'(\xca\x95='
p4661
tp4662
Rp4663
ag1
(g5
S'\x93F\x99='
p4664
tp4665
Rp4666
ag1
(g5
S'\x00\x84\x98='
p4667
tp4668
Rp4669
ag1
(g5
S'c\xb7\x99='
p4670
tp4671
Rp4672
ag1
(g5
S'\x12\x93\x9d='
p4673
tp4674
Rp4675
ag1
(g5
S'\x84\t\x9a='
p4676
tp4677
Rp4678
ag1
(g5
S'\x19\xaf\x98='
p4679
tp4680
Rp4681
ag1
(g5
S'\xa2\xea\x98='
p4682
tp4683
Rp4684
ag1
(g5
S'h\xd7\x98='
p4685
tp4686
Rp4687
ag1
(g5
S'\xb7\xfa\x8f='
p4688
tp4689
Rp4690
ag1
(g5
S'h\xc4\x8e='
p4691
tp4692
Rp4693
ag1
(g5
S'n\xce\x86='
p4694
tp4695
Rp4696
ag1
(g5
S'\xd8g\x96='
p4697
tp4698
Rp4699
ag1
(g5
S'\xa2\xb7\x92='
p4700
tp4701
Rp4702
ag1
(g5
S'\x10\xcd\x8f='
p4703
tp4704
Rp4705
ag1
(g5
S'\x0eQ\x8e='
p4706
tp4707
Rp4708
ag1
(g5
S'\xd4\xd6\x8f='
p4709
tp4710
Rp4711
ag1
(g5
S'\x8a\xac\x8c='
p4712
tp4713
Rp4714
ag1
(g5
S'\x8e\x93\x94='
p4715
tp4716
Rp4717
ag1
(g5
S'\x8ch\x89='
p4718
tp4719
Rp4720
ag1
(g5
S':\x1e\x83='
p4721
tp4722
Rp4723
ag1
(g5
S'\xdd\x15\x88='
p4724
tp4725
Rp4726
ag1
(g5
S':\xd5\x8a='
p4727
tp4728
Rp4729
ag1
(g5
S',\xb7\x83='
p4730
tp4731
Rp4732
ag1
(g5
S'\x95*\x8b='
p4733
tp4734
Rp4735
ag1
(g5
S'\xd5b\x86='
p4736
tp4737
Rp4738
ag1
(g5
S'\xc9\xc0\x87='
p4739
tp4740
Rp4741
ag1
(g5
S'\xf2\x1b\x87='
p4742
tp4743
Rp4744
ag1
(g5
S'`*\x83='
p4745
tp4746
Rp4747
ag1
(g5
S'\xa2\xcc,='
p4748
tp4749
Rp4750
ag1
(g5
S'\xe4n4='
p4751
tp4752
Rp4753
ag1
(g5
S'Q8&='
p4754
tp4755
Rp4756
ag1
(g5
S'\xb84$='
p4757
tp4758
Rp4759
ag1
(g5
S'\xe1-3='
p4760
tp4761
Rp4762
ag1
(g5
S'C\xffI='
p4763
tp4764
Rp4765
ag1
(g5
S'\x87b#='
p4766
tp4767
Rp4768
ag1
(g5
S'B\x1d*='
p4769
tp4770
Rp4771
ag1
(g5
S'0\xb59='
p4772
tp4773
Rp4774
ag1
(g5
S'\xc5g3='
p4775
tp4776
Rp4777
ag1
(g5
S'\xf4\xec\x14='
p4778
tp4779
Rp4780
ag1
(g5
S'\n\xbd\x18='
p4781
tp4782
Rp4783
ag1
(g5
S'K@\x15='
p4784
tp4785
Rp4786
ag1
(g5
S'\xf1C\x1b='
p4787
tp4788
Rp4789
ag1
(g5
S'w@\x10='
p4790
tp4791
Rp4792
ag1
(g5
S'Wb\x0e='
p4793
tp4794
Rp4795
ag1
(g5
S'.S\x0b='
p4796
tp4797
Rp4798
ag1
(g5
S'\x85\xd0\x06='
p4799
tp4800
Rp4801
ag1
(g5
S'\x82\x16\x15='
p4802
tp4803
Rp4804
ag1
(g5
S'~D\x16='
p4805
tp4806
Rp4807
ag1
(g5
S'\x02\xe3\xc6<'
p4808
tp4809
Rp4810
ag1
(g5
S'KY\xc9<'
p4811
tp4812
Rp4813
ag1
(g5
S'\xd6\xce\xce<'
p4814
tp4815
Rp4816
ag1
(g5
S'\xbc\xfb\xcb<'
p4817
tp4818
Rp4819
ag1
(g5
S'\xd9P\xc3<'
p4820
tp4821
Rp4822
ag1
(g5
S'by\xc1<'
p4823
tp4824
Rp4825
ag1
(g5
S'\xa2V\xbf<'
p4826
tp4827
Rp4828
ag1
(g5
S'\x04X\xc4<'
p4829
tp4830
Rp4831
ag1
(g5
S'H\xf6\xc6<'
p4832
tp4833
Rp4834
ag1
(g5
S'\xf1\xfc\xc3<'
p4835
tp4836
Rp4837
ag1
(g5
S'\xb4\x8b+='
p4838
tp4839
Rp4840
ag1
(g5
S"s\xc4'="
p4841
tp4842
Rp4843
ag1
(g5
S'\x85;\x15='
p4844
tp4845
Rp4846
ag1
(g5
S'\x16`\x1c='
p4847
tp4848
Rp4849
ag1
(g5
S'\xf3\xcf\x1e='
p4850
tp4851
Rp4852
ag1
(g5
S'eM\x15='
p4853
tp4854
Rp4855
ag1
(g5
S'\xe0\xb6\x1a='
p4856
tp4857
Rp4858
ag1
(g5
S'\x02\xbb\x14='
p4859
tp4860
Rp4861
ag1
(g5
S'\xde*\x15='
p4862
tp4863
Rp4864
ag1
(g5
S'\xdf\xfd)='
p4865
tp4866
Rp4867
ag1
(g5
S'\x98A~='
p4868
tp4869
Rp4870
ag1
(g5
S'\x07!\x80='
p4871
tp4872
Rp4873
ag1
(g5
S'\xea\xe8q='
p4874
tp4875
Rp4876
ag1
(g5
S'b\xc6\x7f='
p4877
tp4878
Rp4879
ag1
(g5
S'\x8f\xfb\x82='
p4880
tp4881
Rp4882
ag1
(g5
S'\xd4C\x84='
p4883
tp4884
Rp4885
ag1
(g5
S'\xde\x89s='
p4886
tp4887
Rp4888
ag1
(g5
S'\x82-u='
p4889
tp4890
Rp4891
ag1
(g5
S'\xf2\xf0x='
p4892
tp4893
Rp4894
ag1
(g5
S'\xcfPz='
p4895
tp4896
Rp4897
ag1
(g5
S'\xdc\x93x='
p4898
tp4899
Rp4900
ag1
(g5
S'\r\xbf\x81='
p4901
tp4902
Rp4903
ag1
(g5
S'\xf5O\x80='
p4904
tp4905
Rp4906
ag1
(g5
S'\xdc\x86t='
p4907
tp4908
Rp4909
ag1
(g5
S'\xecZr='
p4910
tp4911
Rp4912
ag1
(g5
S'\x91\x05|='
p4913
tp4914
Rp4915
ag1
(g5
S',\x0ew='
p4916
tp4917
Rp4918
ag1
(g5
S'3\xacx='
p4919
tp4920
Rp4921
ag1
(g5
S'\x80\x12{='
p4922
tp4923
Rp4924
ag1
(g5
S'\xcf\x12z='
p4925
tp4926
Rp4927
ag1
(g5
S'e\x94\x84='
p4928
tp4929
Rp4930
ag1
(g5
S'\x86I\x83='
p4931
tp4932
Rp4933
ag1
(g5
S'\xacez='
p4934
tp4935
Rp4936
ag1
(g5
S'<py='
p4937
tp4938
Rp4939
ag1
(g5
S'\x04\x05~='
p4940
tp4941
Rp4942
ag1
(g5
S'&E{='
p4943
tp4944
Rp4945
ag1
(g5
S'\xa4\xcb\x7f='
p4946
tp4947
Rp4948
ag1
(g5
S'\xb6qz='
p4949
tp4950
Rp4951
ag1
(g5
S'\x8a\xc2w='
p4952
tp4953
Rp4954
ag1
(g5
S'`\xf2\x80='
p4955
tp4956
Rp4957
ag1
(g5
S'\x1cTy='
p4958
tp4959
Rp4960
ag1
(g5
S'J\x07k='
p4961
tp4962
Rp4963
ag1
(g5
S'\ngl='
p4964
tp4965
Rp4966
ag1
(g5
S'\x94\x00f='
p4967
tp4968
Rp4969
ag1
(g5
S'\xcdjg='
p4970
tp4971
Rp4972
ag1
(g5
S'\x97!T='
p4973
tp4974
Rp4975
ag1
(g5
S'\xe4\xfbq='
p4976
tp4977
Rp4978
ag1
(g5
S'\xf6\x1do='
p4979
tp4980
Rp4981
ag1
(g5
S'\x90\xdfs='
p4982
tp4983
Rp4984
ag1
(g5
S'jf_='
p4985
tp4986
Rp4987
ag1
(g5
S'\x98\x8es='
p4988
tp4989
Rp4990
ag1
(g5
S'\x1a\xf9i='
p4991
tp4992
Rp4993
ag1
(g5
S'\xe7\xe9l='
p4994
tp4995
Rp4996
ag1
(g5
S'Teg='
p4997
tp4998
Rp4999
ag1
(g5
S'4\xb3^='
p5000
tp5001
Rp5002
ag1
(g5
S'\xac\tr='
p5003
tp5004
Rp5005
ag1
(g5
S'uA^='
p5006
tp5007
Rp5008
ag1
(g5
S'\x0e=j='
p5009
tp5010
Rp5011
ag1
(g5
S'\x8cvo='
p5012
tp5013
Rp5014
ag1
(g5
S'\x9eWc='
p5015
tp5016
Rp5017
ag1
(g5
S'\x1e\xd6f='
p5018
tp5019
Rp5020
ag1
(g5
S'&}b='
p5021
tp5022
Rp5023
ag1
(g5
S'\xdc\xd0i='
p5024
tp5025
Rp5026
ag1
(g5
S'\x0e\xccf='
p5027
tp5028
Rp5029
ag1
(g5
S'\x9e\x04r='
p5030
tp5031
Rp5032
ag1
(g5
S'u\xebg='
p5033
tp5034
Rp5035
ag1
(g5
S'[\x80^='
p5036
tp5037
Rp5038
ag1
(g5
S'\xd1Bb='
p5039
tp5040
Rp5041
ag1
(g5
S'\xcf\xc8\\='
p5042
tp5043
Rp5044
ag1
(g5
S'\x89ed='
p5045
tp5046
Rp5047
ag1
(g5
S'\xa7\xf9W='
p5048
tp5049
Rp5050
ag1
(g5
S'eeY='
p5051
tp5052
Rp5053
ag1
(g5
S'LgV='
p5054
tp5055
Rp5056
ag1
(g5
S'v\xe1\\='
p5057
tp5058
Rp5059
ag1
(g5
S'N\xe2a='
p5060
tp5061
Rp5062
ag1
(g5
S'}\x99R='
p5063
tp5064
Rp5065
ag1
(g5
S'2HW='
p5066
tp5067
Rp5068
ag1
(g5
S'\xac2W='
p5069
tp5070
Rp5071
ag1
(g5
S'\xfe}[='
p5072
tp5073
Rp5074
ag1
(g5
S'\xb4\x9da='
p5075
tp5076
Rp5077
ag1
(g5
S'>3U='
p5078
tp5079
Rp5080
ag1
(g5
S'h%T='
p5081
tp5082
Rp5083
ag1
(g5
S'\x92\x9fS='
p5084
tp5085
Rp5086
ag1
(g5
S'\xcc\x02R='
p5087
tp5088
Rp5089
ag1
(g5
S'j\x9cV='
p5090
tp5091
Rp5092
ag1
(g5
S'!\xecO='
p5093
tp5094
Rp5095
ag1
(g5
S'xXW='
p5096
tp5097
Rp5098
ag1
(g5
S'`hV='
p5099
tp5100
Rp5101
ag1
(g5
S'szP='
p5102
tp5103
Rp5104
ag1
(g5
S'3\xe2V='
p5105
tp5106
Rp5107
ag1
(g5
S'4\xa9P='
p5108
tp5109
Rp5110
ag1
(g5
S'\xd0vZ='
p5111
tp5112
Rp5113
ag1
(g5
S'\xd8EW='
p5114
tp5115
Rp5116
ag1
(g5
S'\xbelO='
p5117
tp5118
Rp5119
ag1
(g5
S'g@S='
p5120
tp5121
Rp5122
ag1
(g5
S'\x1e\x1eV='
p5123
tp5124
Rp5125
ag1
(g5
S'@;O='
p5126
tp5127
Rp5128
ag1
(g5
S'\xf1[]='
p5129
tp5130
Rp5131
ag1
(g5
S'\x13\xf5]='
p5132
tp5133
Rp5134
ag1
(g5
S'\xb5\xd2a='
p5135
tp5136
Rp5137
ag1
(g5
S'2\x0b^='
p5138
tp5139
Rp5140
ag1
(g5
S'2vT='
p5141
tp5142
Rp5143
ag1
(g5
S'\x02\x1eQ='
p5144
tp5145
Rp5146
ag1
(g5
S'\x86\xdeX='
p5147
tp5148
Rp5149
ag1
(g5
S'\xa4\x05Y='
p5150
tp5151
Rp5152
ag1
(g5
S'\xcer@='
p5153
tp5154
Rp5155
ag1
(g5
S'\xf5nS='
p5156
tp5157
Rp5158
ag1
(g5
S'W\xf4K='
p5159
tp5160
Rp5161
ag1
(g5
S'U\x1eQ='
p5162
tp5163
Rp5164
ag1
(g5
S'\xca\xa1T='
p5165
tp5166
Rp5167
ag1
(g5
S'\x17\x86X='
p5168
tp5169
Rp5170
ag1
(g5
S'\xc6sY='
p5171
tp5172
Rp5173
ag1
(g5
S'\xef\xe0Q='
p5174
tp5175
Rp5176
ag1
(g5
S'*TL='
p5177
tp5178
Rp5179
ag1
(g5
S'\xbb\x14Z='
p5180
tp5181
Rp5182
ag1
(g5
S'\x9e#S='
p5183
tp5184
Rp5185
ag1
(g5
S'\x9f\xa9R='
p5186
tp5187
Rp5188
ag1
(g5
S'\x8a\xbbQ='
p5189
tp5190
Rp5191
ag1
(g5
S'\xb9LU='
p5192
tp5193
Rp5194
ag1
(g5
S'\xa2+Q='
p5195
tp5196
Rp5197
ag1
(g5
S'\x99\xedM='
p5198
tp5199
Rp5200
ag1
(g5
S'\xa1\x08I='
p5201
tp5202
Rp5203
ag1
(g5
S'\xdf\xa2W='
p5204
tp5205
Rp5206
ag1
(g5
S'\x96\x7fM='
p5207
tp5208
Rp5209
ag1
(g5
S'^\xeeP='
p5210
tp5211
Rp5212
ag1
(g5
S'\x07\x9fJ='
p5213
tp5214
Rp5215
ag1
(g5
S'ZES='
p5216
tp5217
Rp5218
ag1
(g5
S'VON='
p5219
tp5220
Rp5221
ag1
(g5
S'z\x1cP='
p5222
tp5223
Rp5224
ag1
(g5
S'\xce7W='
p5225
tp5226
Rp5227
ag1
(g5
S'\xc2\xe6<='
p5228
tp5229
Rp5230
ag1
(g5
S'\x9dHR='
p5231
tp5232
Rp5233
ag1
(g5
S'dBV='
p5234
tp5235
Rp5236
ag1
(g5
S'\xaa\xa2L='
p5237
tp5238
Rp5239
ag1
(g5
S'\xb0\x8f?='
p5240
tp5241
Rp5242
ag1
(g5
S'\x12\x92J='
p5243
tp5244
Rp5245
ag1
(g5
S'\xba\x8eS='
p5246
tp5247
Rp5248
ag1
(g5
S'\\\xeeF='
p5249
tp5250
Rp5251
ag1
(g5
S'\xfb\xb5@='
p5252
tp5253
Rp5254
ag1
(g5
S'i\xfeD='
p5255
tp5256
Rp5257
ag1
(g5
S'\xea\xc4@='
p5258
tp5259
Rp5260
ag1
(g5
S'O\x1fF='
p5261
tp5262
Rp5263
ag1
(g5
S'\x8cFL='
p5264
tp5265
Rp5266
ag1
(g5
S'\x04\x13K='
p5267
tp5268
Rp5269
ag1
(g5
S'\xb3\x80G='
p5270
tp5271
Rp5272
ag1
(g5
S'34D='
p5273
tp5274
Rp5275
ag1
(g5
S'"=M='
p5276
tp5277
Rp5278
ag1
(g5
S'pCH='
p5279
tp5280
Rp5281
ag1
(g5
S'ocM='
p5282
tp5283
Rp5284
ag1
(g5
S'WKN='
p5285
tp5286
Rp5287
ag1
(g5
S'\xd3\xc0B='
p5288
tp5289
Rp5290
ag1
(g5
S'02I='
p5291
tp5292
Rp5293
ag1
(g5
S'v\xef@='
p5294
tp5295
Rp5296
ag1
(g5
S'\xb8\xf8F='
p5297
tp5298
Rp5299
ag1
(g5
S'H\xd7Q='
p5300
tp5301
Rp5302
ag1
(g5
S'f\xeaK='
p5303
tp5304
Rp5305
ag1
(g5
S'H[H='
p5306
tp5307
Rp5308
ag1
(g5
S'\xec\x0fB='
p5309
tp5310
Rp5311
ag1
(g5
S'\xd7sL='
p5312
tp5313
Rp5314
ag1
(g5
S'\xeb D='
p5315
tp5316
Rp5317
ag1
(g5
S'\xbaKS='
p5318
tp5319
Rp5320
ag1
(g5
S'\xca\xe2G='
p5321
tp5322
Rp5323
ag1
(g5
S'Z\x8c@='
p5324
tp5325
Rp5326
ag1
(g5
S'\xff\xd68='
p5327
tp5328
Rp5329
ag1
(g5
S',3J='
p5330
tp5331
Rp5332
ag1
(g5
S'*\xc5C='
p5333
tp5334
Rp5335
ag1
(g5
S'C\x9aB='
p5336
tp5337
Rp5338
ag1
(g5
S'.\x1eT='
p5339
tp5340
Rp5341
ag1
(g5
S'\xc3\xe6@='
p5342
tp5343
Rp5344
ag1
(g5
S'\xaa\xcaG='
p5345
tp5346
Rp5347
ag1
(g5
S'i\xb6E='
p5348
tp5349
Rp5350
ag1
(g5
S'\xb6\x03G='
p5351
tp5352
Rp5353
ag1
(g5
S'\xf2\xc2>='
p5354
tp5355
Rp5356
ag1
(g5
S'RH>='
p5357
tp5358
Rp5359
ag1
(g5
S'\xac\xdbD='
p5360
tp5361
Rp5362
ag1
(g5
S'p\x98N='
p5363
tp5364
Rp5365
ag1
(g5
S'\x98\x06D='
p5366
tp5367
Rp5368
ag1
(g5
S'\xac\nD='
p5369
tp5370
Rp5371
ag1
(g5
S'\xe2\x86M='
p5372
tp5373
Rp5374
ag1
(g5
S' \x91:='
p5375
tp5376
Rp5377
ag1
(g5
S'"\xa7K='
p5378
tp5379
Rp5380
ag1
(g5
S'`aI='
p5381
tp5382
Rp5383
ag1
(g5
S'k%E='
p5384
tp5385
Rp5386
ag1
(g5
S'\x14\x90N='
p5387
tp5388
Rp5389
ag1
(g5
S'\x00\xa6U='
p5390
tp5391
Rp5392
ag1
(g5
S'P\xa09='
p5393
tp5394
Rp5395
ag1
(g5
S'\xa2\x92E='
p5396
tp5397
Rp5398
ag1
(g5
S'\xb5\xf7P='
p5399
tp5400
Rp5401
ag1
(g5
S'\xecWB='
p5402
tp5403
Rp5404
ag1
(g5
S'\xf8\xd7F='
p5405
tp5406
Rp5407
ag1
(g5
S'\xdaeH='
p5408
tp5409
Rp5410
ag1
(g5
S'[\xe8X='
p5411
tp5412
Rp5413
ag1
(g5
S'\x9d\x17V='
p5414
tp5415
Rp5416
ag1
(g5
S'z\x13Y='
p5417
tp5418
Rp5419
ag1
(g5
S'U\x8dK='
p5420
tp5421
Rp5422
ag1
(g5
S'\x00nL='
p5423
tp5424
Rp5425
ag1
(g5
S'\xf4\xddQ='
p5426
tp5427
Rp5428
ag1
(g5
S'0ES='
p5429
tp5430
Rp5431
ag1
(g5
S'"aR='
p5432
tp5433
Rp5434
ag1
(g5
S'jbK='
p5435
tp5436
Rp5437
ag1
(g5
S'\xc8B]='
p5438
tp5439
Rp5440
ag1
(g5
S'\xce#S='
p5441
tp5442
Rp5443
ag1
(g5
S'\xf7#X='
p5444
tp5445
Rp5446
ag1
(g5
S'\xc7\xb2I='
p5447
tp5448
Rp5449
ag1
(g5
S'X.P='
p5450
tp5451
Rp5452
ag1
(g5
S'WUK='
p5453
tp5454
Rp5455
ag1
(g5
S'\x0c\xd6Y='
p5456
tp5457
Rp5458
ag1
(g5
S'\xc0\xd7N='
p5459
tp5460
Rp5461
ag1
(g5
S'\x83\tJ='
p5462
tp5463
Rp5464
ag1
(g5
S'\xe6VJ='
p5465
tp5466
Rp5467
ag1
(g5
S'\xe2\xa5:='
p5468
tp5469
Rp5470
ag1
(g5
S'\x87SE='
p5471
tp5472
Rp5473
ag1
(g5
S'\xc1<I='
p5474
tp5475
Rp5476
ag1
(g5
S'\xb8\xbc=='
p5477
tp5478
Rp5479
ag1
(g5
S'\x02\xf1G='
p5480
tp5481
Rp5482
ag1
(g5
S'\xf84>='
p5483
tp5484
Rp5485
ag1
(g5
S'\xe8\x81G='
p5486
tp5487
Rp5488
ag1
(g5
S'\xaavM='
p5489
tp5490
Rp5491
ag1
(g5
S'\x94UG='
p5492
tp5493
Rp5494
ag1
(g5
S'\x80\x96E='
p5495
tp5496
Rp5497
ag1
(g5
S'\xa0\x08@='
p5498
tp5499
Rp5500
ag1
(g5
S'\xbe\xe4@='
p5501
tp5502
Rp5503
ag1
(g5
S'\xf4\xeaE='
p5504
tp5505
Rp5506
ag1
(g5
S'\xe4\x85E='
p5507
tp5508
Rp5509
ag1
(g5
S'\xe2^A='
p5510
tp5511
Rp5512
ag1
(g5
S'\xcd\xbbD='
p5513
tp5514
Rp5515
ag1
(g5
S'\xda"<='
p5516
tp5517
Rp5518
ag1
(g5
S'\xf0\\9='
p5519
tp5520
Rp5521
ag1
(g5
S'&\xe9I='
p5522
tp5523
Rp5524
ag1
(g5
S'D\xc0I='
p5525
tp5526
Rp5527
ag1
(g5
S'e?>='
p5528
tp5529
Rp5530
ag1
(g5
S'\x0f?<='
p5531
tp5532
Rp5533
ag1
(g5
S'z\xd6>='
p5534
tp5535
Rp5536
ag1
(g5
S'\x802K='
p5537
tp5538
Rp5539
ag1
(g5
S'T\xecL='
p5540
tp5541
Rp5542
ag1
(g5
S'\xb7G:='
p5543
tp5544
Rp5545
ag1
(g5
S'\xe9KJ='
p5546
tp5547
Rp5548
ag1
(g5
S'\x82\xe2E='
p5549
tp5550
Rp5551
ag1
(g5
S'\xfd\x0cH='
p5552
tp5553
Rp5554
ag1
(g5
S'@,=='
p5555
tp5556
Rp5557
ag1
(g5
S'\xc78;='
p5558
tp5559
Rp5560
ag1
(g5
S'\xee\x8f3='
p5561
tp5562
Rp5563
ag1
(g5
S'u\xb6=='
p5564
tp5565
Rp5566
ag1
(g5
S'\x02\xff<='
p5567
tp5568
Rp5569
ag1
(g5
S'\xe8bA='
p5570
tp5571
Rp5572
ag1
(g5
S'\x8946='
p5573
tp5574
Rp5575
ag1
(g5
S'\x0f=8='
p5576
tp5577
Rp5578
ag1
(g5
S'_\xfd>='
p5579
tp5580
Rp5581
ag1
(g5
S'\x08\xe7A='
p5582
tp5583
Rp5584
ag1
(g5
S'\xca\x06<='
p5585
tp5586
Rp5587
ag1
(g5
S'J\xf3@='
p5588
tp5589
Rp5590
ag1
(g5
S'\xd3`9='
p5591
tp5592
Rp5593
ag1
(g5
S'\xd9{@='
p5594
tp5595
Rp5596
ag1
(g5
S'\xc8\xdd/='
p5597
tp5598
Rp5599
ag1
(g5
S'\x0b\xddI='
p5600
tp5601
Rp5602
ag1
(g5
S'&\xb66='
p5603
tp5604
Rp5605
ag1
(g5
S'\xd5\\9='
p5606
tp5607
Rp5608
ag1
(g5
S'\xd8E?='
p5609
tp5610
Rp5611
ag1
(g5
S'.\xf6>='
p5612
tp5613
Rp5614
ag1
(g5
S'6\xdc@='
p5615
tp5616
Rp5617
ag1
(g5
S'*\xe3\x99='
p5618
tp5619
Rp5620
ag1
(g5
S'7\x9d\x9b='
p5621
tp5622
Rp5623
ag1
(g5
S'\\\x80\x97='
p5624
tp5625
Rp5626
ag1
(g5
S'\x06>\x91='
p5627
tp5628
Rp5629
ag1
(g5
S'\xb4\xb2\x9a='
p5630
tp5631
Rp5632
ag1
(g5
S'9z\x94='
p5633
tp5634
Rp5635
ag1
(g5
S'\xd2\x7f\x94='
p5636
tp5637
Rp5638
ag1
(g5
S'\x100\x9c='
p5639
tp5640
Rp5641
ag1
(g5
S'*e\x96='
p5642
tp5643
Rp5644
ag1
(g5
S'=\x17\x8f='
p5645
tp5646
Rp5647
ag1
(g5
S'0\x8a\xa0='
p5648
tp5649
Rp5650
ag1
(g5
S'\xc3\xe0\x9b='
p5651
tp5652
Rp5653
ag1
(g5
S'\xdau\x99='
p5654
tp5655
Rp5656
ag1
(g5
S'\xbep\x9d='
p5657
tp5658
Rp5659
ag1
(g5
S'\x84X\x9f='
p5660
tp5661
Rp5662
ag1
(g5
S'\x9c"\x9a='
p5663
tp5664
Rp5665
ag1
(g5
S'1\x9a\x9d='
p5666
tp5667
Rp5668
ag1
(g5
S'L\x94\x9b='
p5669
tp5670
Rp5671
ag1
(g5
S'\xd2\xac\x9b='
p5672
tp5673
Rp5674
ag1
(g5
S'\xde\xe7\x99='
p5675
tp5676
Rp5677
ag1
(g5
S'\xc2D)='
p5678
tp5679
Rp5680
ag1
(g5
S'+g&='
p5681
tp5682
Rp5683
ag1
(g5
S'\xc5T-='
p5684
tp5685
Rp5686
ag1
(g5
S'\x9dyC='
p5687
tp5688
Rp5689
ag1
(g5
S'\x0cl(='
p5690
tp5691
Rp5692
ag1
(g5
S'\n(\x1c='
p5693
tp5694
Rp5695
ag1
(g5
S't\xee\x1b='
p5696
tp5697
Rp5698
ag1
(g5
S'\x19\\&='
p5699
tp5700
Rp5701
ag1
(g5
S'\xd702='
p5702
tp5703
Rp5704
ag1
(g5
S'"\x1e+='
p5705
tp5706
Rp5707
ag1
(g5
S'\xd4\xe1\xd9<'
p5708
tp5709
Rp5710
ag1
(g5
S'\xfcJ\xd9<'
p5711
tp5712
Rp5713
ag1
(g5
S'f\xd4\xda<'
p5714
tp5715
Rp5716
ag1
(g5
S'>\xec\xd7<'
p5717
tp5718
Rp5719
ag1
(g5
S'\xdcQ\xe0<'
p5720
tp5721
Rp5722
ag1
(g5
S'\xec9\xd9<'
p5723
tp5724
Rp5725
ag1
(g5
S'\xe8\x16\xdb<'
p5726
tp5727
Rp5728
ag1
(g5
S')x\xd7<'
p5729
tp5730
Rp5731
ag1
(g5
S'0D\xd9<'
p5732
tp5733
Rp5734
ag1
(g5
S'\x8f\x90\xd0<'
p5735
tp5736
Rp5737
ag1
(g5
S'p\rL='
p5738
tp5739
Rp5740
ag1
(g5
S'\x00.<='
p5741
tp5742
Rp5743
ag1
(g5
S'~\x81K='
p5744
tp5745
Rp5746
ag1
(g5
S'\xf0\xcf"='
p5747
tp5748
Rp5749
ag1
(g5
S"'AE="
p5750
tp5751
Rp5752
ag1
(g5
S'm\xc4Q='
p5753
tp5754
Rp5755
ag1
(g5
S'\xf8\xfe8='
p5756
tp5757
Rp5758
ag1
(g5
S"'\xa60="
p5759
tp5760
Rp5761
ag1
(g5
S'\xea45='
p5762
tp5763
Rp5764
ag1
(g5
S'\xc4\xbeC='
p5765
tp5766
Rp5767
ag1
(g5
S'\x01\x9ez='
p5768
tp5769
Rp5770
ag1
(g5
S'C\xf8v='
p5771
tp5772
Rp5773
ag1
(g5
S'\xe62w='
p5774
tp5775
Rp5776
ag1
(g5
S'f\xc1v='
p5777
tp5778
Rp5779
ag1
(g5
S'\xceGw='
p5780
tp5781
Rp5782
ag1
(g5
S'2.|='
p5783
tp5784
Rp5785
ag1
(g5
S'\x06\xb1x='
p5786
tp5787
Rp5788
ag1
(g5
S'\xf8\xf7q='
p5789
tp5790
Rp5791
ag1
(g5
S'\xc7\xf8{='
p5792
tp5793
Rp5794
ag1
(g5
S'\xee\x0c~='
p5795
tp5796
Rp5797
ag1
(g5
S'\xa0"o='
p5798
tp5799
Rp5800
ag1
(g5
S'\xf2Wp='
p5801
tp5802
Rp5803
ag1
(g5
S'\xbe\x80p='
p5804
tp5805
Rp5806
ag1
(g5
S'zXu='
p5807
tp5808
Rp5809
ag1
(g5
S'dIx='
p5810
tp5811
Rp5812
ag1
(g5
S'l\xf5t='
p5813
tp5814
Rp5815
ag1
(g5
S'\xfd\x9cx='
p5816
tp5817
Rp5818
ag1
(g5
S'\x8d\x01|='
p5819
tp5820
Rp5821
ag1
(g5
S'\xc6Cw='
p5822
tp5823
Rp5824
ag1
(g5
S'\x13\x8cr='
p5825
tp5826
Rp5827
ag1
(g5
S'\x81\xf4e='
p5828
tp5829
Rp5830
ag1
(g5
S'>Eh='
p5831
tp5832
Rp5833
ag1
(g5
S'\x83\x9bi='
p5834
tp5835
Rp5836
ag1
(g5
S'~\xbck='
p5837
tp5838
Rp5839
ag1
(g5
S'\xa7\x00o='
p5840
tp5841
Rp5842
ag1
(g5
S'\xba\xcfe='
p5843
tp5844
Rp5845
ag1
(g5
S'\xd8)g='
p5846
tp5847
Rp5848
ag1
(g5
S'\x86\xe2g='
p5849
tp5850
Rp5851
ag1
(g5
S'\xf2\xfbh='
p5852
tp5853
Rp5854
ag1
(g5
S'\xc6;d='
p5855
tp5856
Rp5857
ag1
(g5
S'b\xe2i='
p5858
tp5859
Rp5860
ag1
(g5
S'\x12\xdcf='
p5861
tp5862
Rp5863
ag1
(g5
S'\x92\xffl='
p5864
tp5865
Rp5866
ag1
(g5
S'\xe3Uh='
p5867
tp5868
Rp5869
ag1
(g5
S'B\x01v='
p5870
tp5871
Rp5872
ag1
(g5
S'\x0b`d='
p5873
tp5874
Rp5875
ag1
(g5
S'\xc6\xd2s='
p5876
tp5877
Rp5878
ag1
(g5
S"\xd8'j="
p5879
tp5880
Rp5881
ag1
(g5
S'\xb21n='
p5882
tp5883
Rp5884
ag1
(g5
S'>\x19r='
p5885
tp5886
Rp5887
ag1
(g5
S'\x14\x06m='
p5888
tp5889
Rp5890
ag1
(g5
S'\xa8\tm='
p5891
tp5892
Rp5893
ag1
(g5
S'\x841r='
p5894
tp5895
Rp5896
ag1
(g5
S'\xbf\xc1d='
p5897
tp5898
Rp5899
ag1
(g5
S'8\x1bn='
p5900
tp5901
Rp5902
ag1
(g5
S'\xac\xc9j='
p5903
tp5904
Rp5905
ag1
(g5
S'\xd1{u='
p5906
tp5907
Rp5908
ag1
(g5
S'\x00;j='
p5909
tp5910
Rp5911
ag1
(g5
S'\xa8_m='
p5912
tp5913
Rp5914
ag1
(g5
S'\xc4\x85k='
p5915
tp5916
Rp5917
ag1
(g5
S'F\xf4q='
p5918
tp5919
Rp5920
ag1
(g5
S'|%p='
p5921
tp5922
Rp5923
ag1
(g5
S'Xqq='
p5924
tp5925
Rp5926
ag1
(g5
S'Upr='
p5927
tp5928
Rp5929
ag1
(g5
S'3\x86k='
p5930
tp5931
Rp5932
ag1
(g5
S'*\x87r='
p5933
tp5934
Rp5935
ag1
(g5
S'/\xccm='
p5936
tp5937
Rp5938
ag1
(g5
S'/Zn='
p5939
tp5940
Rp5941
ag1
(g5
S'(\xdeq='
p5942
tp5943
Rp5944
ag1
(g5
S'>\xbdm='
p5945
tp5946
Rp5947
ag1
(g5
S'\xb2Sf='
p5948
tp5949
Rp5950
ag1
(g5
S'\xc3\xa0h='
p5951
tp5952
Rp5953
ag1
(g5
S'\x93-s='
p5954
tp5955
Rp5956
ag1
(g5
S'Y\xf4h='
p5957
tp5958
Rp5959
ag1
(g5
S'M\x06p='
p5960
tp5961
Rp5962
ag1
(g5
S'Z\xe2_='
p5963
tp5964
Rp5965
ag1
(g5
S'jJb='
p5966
tp5967
Rp5968
ag1
(g5
S'n\xc8f='
p5969
tp5970
Rp5971
ag1
(g5
S'Q\x00f='
p5972
tp5973
Rp5974
ag1
(g5
S'\x11\xafn='
p5975
tp5976
Rp5977
ag1
(g5
S';\x88c='
p5978
tp5979
Rp5980
ag1
(g5
S'}\xacc='
p5981
tp5982
Rp5983
ag1
(g5
S'HtU='
p5984
tp5985
Rp5986
ag1
(g5
S'\xa2\xe2b='
p5987
tp5988
Rp5989
ag1
(g5
S'\x1c\xb6^='
p5990
tp5991
Rp5992
ag1
(g5
S'\xb9{d='
p5993
tp5994
Rp5995
ag1
(g5
S'\xb4\xd5Z='
p5996
tp5997
Rp5998
ag1
(g5
S'\xc7~]='
p5999
tp6000
Rp6001
ag1
(g5
S'\x06)W='
p6002
tp6003
Rp6004
ag1
(g5
S'\xf3\xf9Y='
p6005
tp6006
Rp6007
ag1
(g5
S'\xe9\x05a='
p6008
tp6009
Rp6010
ag1
(g5
S'\xb8\xac^='
p6011
tp6012
Rp6013
ag1
(g5
S'\xf0Wf='
p6014
tp6015
Rp6016
ag1
(g5
S'8\x01[='
p6017
tp6018
Rp6019
ag1
(g5
S'\xa8Gj='
p6020
tp6021
Rp6022
ag1
(g5
S'\xe9\xc6f='
p6023
tp6024
Rp6025
ag1
(g5
S'\x14\xcec='
p6026
tp6027
Rp6028
ag1
(g5
S' \x0c_='
p6029
tp6030
Rp6031
ag1
(g5
S'S\x08X='
p6032
tp6033
Rp6034
ag1
(g5
S'14d='
p6035
tp6036
Rp6037
ag1
(g5
S'\xdd\xc9_='
p6038
tp6039
Rp6040
ag1
(g5
S'\xba\xa4^='
p6041
tp6042
Rp6043
ag1
(g5
S'\xc9\x8ad='
p6044
tp6045
Rp6046
ag1
(g5
S'p\x81\\='
p6047
tp6048
Rp6049
ag1
(g5
S'C\xf5a='
p6050
tp6051
Rp6052
ag1
(g5
S'\xcb\xd8W='
p6053
tp6054
Rp6055
ag1
(g5
S'\x9a\xf1_='
p6056
tp6057
Rp6058
ag1
(g5
S'ek_='
p6059
tp6060
Rp6061
ag1
(g5
S'VRZ='
p6062
tp6063
Rp6064
ag1
(g5
S'\x9bMV='
p6065
tp6066
Rp6067
ag1
(g5
S'Q\rk='
p6068
tp6069
Rp6070
ag1
(g5
S'KRm='
p6071
tp6072
Rp6073
ag1
(g5
S'\x10\x11Z='
p6074
tp6075
Rp6076
ag1
(g5
S'L\n_='
p6077
tp6078
Rp6079
ag1
(g5
S'\xfc\x86^='
p6080
tp6081
Rp6082
ag1
(g5
S'\xfcZ`='
p6083
tp6084
Rp6085
ag1
(g5
S'\xbe\xfcT='
p6086
tp6087
Rp6088
ag1
(g5
S'\x86\xc7c='
p6089
tp6090
Rp6091
ag1
(g5
S'\xfcV^='
p6092
tp6093
Rp6094
ag1
(g5
S'~3[='
p6095
tp6096
Rp6097
ag1
(g5
S'd{]='
p6098
tp6099
Rp6100
ag1
(g5
S'\xf4ER='
p6101
tp6102
Rp6103
ag1
(g5
S'J\xe5^='
p6104
tp6105
Rp6106
ag1
(g5
S'\x15\xbaS='
p6107
tp6108
Rp6109
ag1
(g5
S'\x12*\\='
p6110
tp6111
Rp6112
ag1
(g5
S'\x86\xb9X='
p6113
tp6114
Rp6115
ag1
(g5
S'_\x88Z='
p6116
tp6117
Rp6118
ag1
(g5
S'enR='
p6119
tp6120
Rp6121
ag1
(g5
S'\x00\x02P='
p6122
tp6123
Rp6124
ag1
(g5
S'l\xd3^='
p6125
tp6126
Rp6127
ag1
(g5
S'\xf7\xe0Q='
p6128
tp6129
Rp6130
ag1
(g5
S'R\x99P='
p6131
tp6132
Rp6133
ag1
(g5
S'>!Q='
p6134
tp6135
Rp6136
ag1
(g5
S'\x04UT='
p6137
tp6138
Rp6139
ag1
(g5
S'\xd8\xfcS='
p6140
tp6141
Rp6142
ag1
(g5
S'\xd1\xd3N='
p6143
tp6144
Rp6145
ag1
(g5
S'-\xaeK='
p6146
tp6147
Rp6148
ag1
(g5
S'\x9e\x8aS='
p6149
tp6150
Rp6151
ag1
(g5
S'-\x98S='
p6152
tp6153
Rp6154
ag1
(g5
S'T]O='
p6155
tp6156
Rp6157
ag1
(g5
S'\xcd\xc7Q='
p6158
tp6159
Rp6160
ag1
(g5
S'\xa0^V='
p6161
tp6162
Rp6163
ag1
(g5
S'\xa9\xeaV='
p6164
tp6165
Rp6166
ag1
(g5
S'\xab\x92U='
p6167
tp6168
Rp6169
ag1
(g5
S'\xe6oU='
p6170
tp6171
Rp6172
ag1
(g5
S'\xf8-T='
p6173
tp6174
Rp6175
ag1
(g5
S'\xfe\xd3K='
p6176
tp6177
Rp6178
ag1
(g5
S'\xf7\xd8T='
p6179
tp6180
Rp6181
ag1
(g5
S'\xf9\xa9]='
p6182
tp6183
Rp6184
ag1
(g5
S'JzT='
p6185
tp6186
Rp6187
ag1
(g5
S'\xe5 M='
p6188
tp6189
Rp6190
ag1
(g5
S'\xbd\xcdV='
p6191
tp6192
Rp6193
ag1
(g5
S'Z\xdcT='
p6194
tp6195
Rp6196
ag1
(g5
S'\xa9/G='
p6197
tp6198
Rp6199
ag1
(g5
S'\xa4\xfaQ='
p6200
tp6201
Rp6202
ag1
(g5
S'\x90\x00H='
p6203
tp6204
Rp6205
ag1
(g5
S'PNU='
p6206
tp6207
Rp6208
ag1
(g5
S'\x96bL='
p6209
tp6210
Rp6211
ag1
(g5
S'\xc0\xf6Y='
p6212
tp6213
Rp6214
ag1
(g5
S'\t\x86L='
p6215
tp6216
Rp6217
ag1
(g5
S'PXW='
p6218
tp6219
Rp6220
ag1
(g5
S'$\x02M='
p6221
tp6222
Rp6223
ag1
(g5
S'\xc8\xf9Q='
p6224
tp6225
Rp6226
ag1
(g5
S'$&Z='
p6227
tp6228
Rp6229
ag1
(g5
S'3GO='
p6230
tp6231
Rp6232
ag1
(g5
S'\xc5\x0bM='
p6233
tp6234
Rp6235
ag1
(g5
S'\xe9\xd9N='
p6236
tp6237
Rp6238
ag1
(g5
S'\x86@H='
p6239
tp6240
Rp6241
ag1
(g5
S'4\xbdD='
p6242
tp6243
Rp6244
ag1
(g5
S'h\x88H='
p6245
tp6246
Rp6247
ag1
(g5
S'\xca\xb6U='
p6248
tp6249
Rp6250
ag1
(g5
S'\xbc\xbbY='
p6251
tp6252
Rp6253
ag1
(g5
S'B\x9fT='
p6254
tp6255
Rp6256
ag1
(g5
S'\xe3#X='
p6257
tp6258
Rp6259
ag1
(g5
S'JnM='
p6260
tp6261
Rp6262
ag1
(g5
S'\xf9|X='
p6263
tp6264
Rp6265
ag1
(g5
S'L\x8b_='
p6266
tp6267
Rp6268
ag1
(g5
S'\xcdON='
p6269
tp6270
Rp6271
ag1
(g5
S'\x80eV='
p6272
tp6273
Rp6274
ag1
(g5
S'C\xeaZ='
p6275
tp6276
Rp6277
ag1
(g5
S'\xca\xc4N='
p6278
tp6279
Rp6280
ag1
(g5
S'\xf3\xb7G='
p6281
tp6282
Rp6283
ag1
(g5
S'\xe0YP='
p6284
tp6285
Rp6286
ag1
(g5
S'\xc2\xacW='
p6287
tp6288
Rp6289
ag1
(g5
S'\t\x83Y='
p6290
tp6291
Rp6292
ag1
(g5
S'\x85\x0fR='
p6293
tp6294
Rp6295
ag1
(g5
S'\nPD='
p6296
tp6297
Rp6298
ag1
(g5
S'C\x8cF='
p6299
tp6300
Rp6301
ag1
(g5
S'?\xadQ='
p6302
tp6303
Rp6304
ag1
(g5
S'\x06\xedJ='
p6305
tp6306
Rp6307
ag1
(g5
S':\xceW='
p6308
tp6309
Rp6310
ag1
(g5
S'b\x0eU='
p6311
tp6312
Rp6313
ag1
(g5
S'@\xd8G='
p6314
tp6315
Rp6316
ag1
(g5
S'\x9f\xcdC='
p6317
tp6318
Rp6319
ag1
(g5
S'w,U='
p6320
tp6321
Rp6322
ag1
(g5
S'\x15rJ='
p6323
tp6324
Rp6325
ag1
(g5
S'\xa7\xc8Z='
p6326
tp6327
Rp6328
ag1
(g5
S'\xc2!K='
p6329
tp6330
Rp6331
ag1
(g5
S'b\xf0Q='
p6332
tp6333
Rp6334
ag1
(g5
S'BLV='
p6335
tp6336
Rp6337
ag1
(g5
S'h\xab@='
p6338
tp6339
Rp6340
ag1
(g5
S'\x80\x91C='
p6341
tp6342
Rp6343
ag1
(g5
S'\xfc\x82=='
p6344
tp6345
Rp6346
ag1
(g5
S'z^H='
p6347
tp6348
Rp6349
ag1
(g5
S'\xce\x89L='
p6350
tp6351
Rp6352
ag1
(g5
S'\x9c\x8fM='
p6353
tp6354
Rp6355
ag1
(g5
S'X}K='
p6356
tp6357
Rp6358
ag1
(g5
S'\x04\x96H='
p6359
tp6360
Rp6361
ag1
(g5
S'\xa8\xd9E='
p6362
tp6363
Rp6364
ag1
(g5
S'1"G='
p6365
tp6366
Rp6367
ag1
(g5
S'\xd2a=='
p6368
tp6369
Rp6370
ag1
(g5
S'\xdc\xc5I='
p6371
tp6372
Rp6373
ag1
(g5
S'W\xdaM='
p6374
tp6375
Rp6376
ag1
(g5
S'\x84\xd8=='
p6377
tp6378
Rp6379
ag1
(g5
S"'\xca;="
p6380
tp6381
Rp6382
ag1
(g5
S'\x1e\xcaA='
p6383
tp6384
Rp6385
ag1
(g5
S'\xb6qE='
p6386
tp6387
Rp6388
ag1
(g5
S'\x00?C='
p6389
tp6390
Rp6391
ag1
(g5
S'n\x907='
p6392
tp6393
Rp6394
ag1
(g5
S'Y\xe5G='
p6395
tp6396
Rp6397
ag1
(g5
S'6\x1dF='
p6398
tp6399
Rp6400
ag1
(g5
S'F9C='
p6401
tp6402
Rp6403
ag1
(g5
S'\x98gQ='
p6404
tp6405
Rp6406
ag1
(g5
S'&\x99:='
p6407
tp6408
Rp6409
ag1
(g5
S'\xd1\xebG='
p6410
tp6411
Rp6412
ag1
(g5
S'\xd0\xf3N='
p6413
tp6414
Rp6415
ag1
(g5
S'\x9d\x99F='
p6416
tp6417
Rp6418
ag1
(g5
S'<-L='
p6419
tp6420
Rp6421
ag1
(g5
S'\x18XE='
p6422
tp6423
Rp6424
ag1
(g5
S'\xb9#G='
p6425
tp6426
Rp6427
ag1
(g5
S'\xbe\x18[='
p6428
tp6429
Rp6430
ag1
(g5
S'w\xb4a='
p6431
tp6432
Rp6433
ag1
(g5
S'\x97-K='
p6434
tp6435
Rp6436
ag1
(g5
S'm([='
p6437
tp6438
Rp6439
ag1
(g5
S'\x91\xd2V='
p6440
tp6441
Rp6442
ag1
(g5
S'\xa82H='
p6443
tp6444
Rp6445
ag1
(g5
S'ElX='
p6446
tp6447
Rp6448
ag1
(g5
S'\xbe\x85Y='
p6449
tp6450
Rp6451
ag1
(g5
S'\xdb\xeaQ='
p6452
tp6453
Rp6454
ag1
(g5
S'P}U='
p6455
tp6456
Rp6457
ag1
(g5
S'\xc4\xe3T='
p6458
tp6459
Rp6460
ag1
(g5
S'\xebq[='
p6461
tp6462
Rp6463
ag1
(g5
S'\x14\xfdY='
p6464
tp6465
Rp6466
ag1
(g5
S'\x16\xb9R='
p6467
tp6468
Rp6469
ag1
(g5
S'\xa0-X='
p6470
tp6471
Rp6472
ag1
(g5
S'\xe3\xe1U='
p6473
tp6474
Rp6475
ag1
(g5
S'T6Y='
p6476
tp6477
Rp6478
ag1
(g5
S'\xcbzO='
p6479
tp6480
Rp6481
ag1
(g5
S'\n\x85b='
p6482
tp6483
Rp6484
ag1
(g5
S'\xc9\xa3M='
p6485
tp6486
Rp6487
ag1
(g5
S'`n?='
p6488
tp6489
Rp6490
ag1
(g5
S'\xf6\xbb3='
p6491
tp6492
Rp6493
ag1
(g5
S'\xff~B='
p6494
tp6495
Rp6496
ag1
(g5
S'`ED='
p6497
tp6498
Rp6499
ag1
(g5
S'\xfc\xca:='
p6500
tp6501
Rp6502
ag1
(g5
S'D\x04B='
p6503
tp6504
Rp6505
ag1
(g5
S'\xbd\x12B='
p6506
tp6507
Rp6508
ag1
(g5
S'\x86\xba>='
p6509
tp6510
Rp6511
ag1
(g5
S'`\xc3?='
p6512
tp6513
Rp6514
ag1
(g5
S'z\xe7=='
p6515
tp6516
Rp6517
ag1
(g5
S'0\xa8\x95='
p6518
tp6519
Rp6520
ag1
(g5
S'L1\x99='
p6521
tp6522
Rp6523
ag1
(g5
S'\xd0\xb4\x8e='
p6524
tp6525
Rp6526
ag1
(g5
S'\xe6\r\x92='
p6527
tp6528
Rp6529
ag1
(g5
S'j8\x8e='
p6530
tp6531
Rp6532
ag1
(g5
S'r#\x8c='
p6533
tp6534
Rp6535
ag1
(g5
S'\xe8\xa6\x90='
p6536
tp6537
Rp6538
ag1
(g5
S'\xba\x10\x95='
p6539
tp6540
Rp6541
ag1
(g5
S'&i\x97='
p6542
tp6543
Rp6544
ag1
(g5
S'\xa8\xdd\x8d='
p6545
tp6546
Rp6547
ag1
(g5
S'p\xce\x81='
p6548
tp6549
Rp6550
ag1
(g5
S'\xa2`\x84='
p6551
tp6552
Rp6553
ag1
(g5
S'\xfc-\x83='
p6554
tp6555
Rp6556
ag1
(g5
S'\x179\x7f='
p6557
tp6558
Rp6559
ag1
(g5
S'\x08\x1e\x82='
p6560
tp6561
Rp6562
ag1
(g5
S'`\xb6\x88='
p6563
tp6564
Rp6565
ag1
(g5
S'\x99Au='
p6566
tp6567
Rp6568
ag1
(g5
S'Y)}='
p6569
tp6570
Rp6571
ag1
(g5
S'&4\x83='
p6572
tp6573
Rp6574
ag1
(g5
S'D\xe6\x82='
p6575
tp6576
Rp6577
ag1
(g5
S'\x8ejd='
p6578
tp6579
Rp6580
ag1
(g5
S'g]\\='
p6581
tp6582
Rp6583
ag1
(g5
S'\x16\x16d='
p6584
tp6585
Rp6586
ag1
(g5
S'N\xbfl='
p6587
tp6588
Rp6589
ag1
(g5
S'\x98\xb7i='
p6590
tp6591
Rp6592
ag1
(g5
S'`\xedq='
p6593
tp6594
Rp6595
ag1
(g5
S'\x16\xbaq='
p6596
tp6597
Rp6598
ag1
(g5
S'\x8c(g='
p6599
tp6600
Rp6601
ag1
(g5
S'-\xa9b='
p6602
tp6603
Rp6604
ag1
(g5
S'.\xe9v='
p6605
tp6606
Rp6607
ag1
(g5
S'N\x14\x91<'
p6608
tp6609
Rp6610
ag1
(g5
S'x{\x11='
p6611
tp6612
Rp6613
ag1
(g5
S'\xe7f\xd6<'
p6614
tp6615
Rp6616
ag1
(g5
S'\x8fx\x0b='
p6617
tp6618
Rp6619
ag1
(g5
S'w\xdc\r='
p6620
tp6621
Rp6622
ag1
(g5
S'\xf05\x0b='
p6623
tp6624
Rp6625
ag1
(g5
S'\x88\xab\x00='
p6626
tp6627
Rp6628
ag1
(g5
S'\x9d\xd5\xe1<'
p6629
tp6630
Rp6631
ag1
(g5
S'\xc4\xbb\xb3<'
p6632
tp6633
Rp6634
ag1
(g5
S'L\xf5_<'
p6635
tp6636
Rp6637
ag1
(g5
S'\x9e\x831='
p6638
tp6639
Rp6640
ag1
(g5
S',\xb9\x1a='
p6641
tp6642
Rp6643
ag1
(g5
S'$Sc='
p6644
tp6645
Rp6646
ag1
(g5
S'\x96\x0fS='
p6647
tp6648
Rp6649
ag1
(g5
S'x\x19\x15='
p6650
tp6651
Rp6652
ag1
(g5
S'\xba)(='
p6653
tp6654
Rp6655
ag1
(g5
S'\xceYF='
p6656
tp6657
Rp6658
ag1
(g5
S'CH=='
p6659
tp6660
Rp6661
ag1
(g5
S'\xb4\xf5\x13='
p6662
tp6663
Rp6664
ag1
(g5
S'b\x83\x0b='
p6665
tp6666
Rp6667
ag1
(g5
S'2\x94#='
p6668
tp6669
Rp6670
ag1
(g5
S'\xe2\xb7\x1b='
p6671
tp6672
Rp6673
ag1
(g5
S'\x08\xb0\xfb<'
p6674
tp6675
Rp6676
ag1
(g5
S'~\x9b\n='
p6677
tp6678
Rp6679
ag1
(g5
S'\xfeY\x1a='
p6680
tp6681
Rp6682
ag1
(g5
S'>\xe6\x0b='
p6683
tp6684
Rp6685
ag1
(g5
S',\x89\xf7<'
p6686
tp6687
Rp6688
ag1
(g5
S'\xc8\x10\xf8<'
p6689
tp6690
Rp6691
ag1
(g5
S'\xe8\xf4\x07='
p6692
tp6693
Rp6694
ag1
(g5
S'\xe4 \xf8<'
p6695
tp6696
Rp6697
ag1
(g5
S'\x86\xe0\xeb<'
p6698
tp6699
Rp6700
ag1
(g5
S'u\xef\xf9<'
p6701
tp6702
Rp6703
ag1
(g5
S'\x12J\xea<'
p6704
tp6705
Rp6706
ag1
(g5
S'=e\xe1<'
p6707
tp6708
Rp6709
ag1
(g5
S'\xf15\xde<'
p6710
tp6711
Rp6712
ag1
(g5
S'\xb8\xe6\xeb<'
p6713
tp6714
Rp6715
ag1
(g5
S'\x05@\xe6<'
p6716
tp6717
Rp6718
ag1
(g5
S'\xc5\x80\xe2<'
p6719
tp6720
Rp6721
ag1
(g5
S'\xabA\xe4<'
p6722
tp6723
Rp6724
ag1
(g5
S'\xcc4\xdb<'
p6725
tp6726
Rp6727
ag1
(g5
S'\x935\xee<'
p6728
tp6729
Rp6730
ag1
(g5
S'\xfb\xac\xe8<'
p6731
tp6732
Rp6733
ag1
(g5
S'\x96\xa8\xea<'
p6734
tp6735
Rp6736
ag1
(g5
S'\x06)\xde<'
p6737
tp6738
Rp6739
ag1
(g5
S':L\xe2<'
p6740
tp6741
Rp6742
ag1
(g5
S'\xce\xd8\xe6<'
p6743
tp6744
Rp6745
ag1
(g5
S'\xfe\x8f\xe3<'
p6746
tp6747
Rp6748
ag1
(g5
S'\xbc\x08\xe9<'
p6749
tp6750
Rp6751
ag1
(g5
S'\xe6P\xdb<'
p6752
tp6753
Rp6754
ag1
(g5
S'C\xff\xdd<'
p6755
tp6756
Rp6757
ag1
(g5
S'\x91\xf6A='
p6758
tp6759
Rp6760
ag1
(g5
S'5@5='
p6761
tp6762
Rp6763
ag1
(g5
S'>\x91.='
p6764
tp6765
Rp6766
ag1
(g5
S'4& ='
p6767
tp6768
Rp6769
ag1
(g5
S'\xd8>-='
p6770
tp6771
Rp6772
ag1
(g5
S'e<\x15='
p6773
tp6774
Rp6775
ag1
(g5
S'X\xdd4='
p6776
tp6777
Rp6778
ag1
(g5
S'aq!='
p6779
tp6780
Rp6781
ag1
(g5
S'\x93\xd8\x0c='
p6782
tp6783
Rp6784
ag1
(g5
S'\xf6\x90 ='
p6785
tp6786
Rp6787
ag1
(g5
S'\x82\xcd\x97='
p6788
tp6789
Rp6790
ag1
(g5
S'\xc8\xf5\x90='
p6791
tp6792
Rp6793
ag1
(g5
S'\x96\xb9\x99='
p6794
tp6795
Rp6796
ag1
(g5
S'\xc4H\x99='
p6797
tp6798
Rp6799
ag1
(g5
S'\x81\x8d\x8a='
p6800
tp6801
Rp6802
ag1
(g5
S'~\x8c\x8d='
p6803
tp6804
Rp6805
ag1
(g5
S'\x1eI\x8f='
p6806
tp6807
Rp6808
ag1
(g5
S'\x9e\x1d\x87='
p6809
tp6810
Rp6811
ag1
(g5
S'+\x9b\x90='
p6812
tp6813
Rp6814
ag1
(g5
S'4\xe1\x87='
p6815
tp6816
Rp6817
ag1
(g5
S'\xe4\xdd\x8b='
p6818
tp6819
Rp6820
ag1
(g5
S'\x99\xea\x82='
p6821
tp6822
Rp6823
ag1
(g5
S",'\x85="
p6824
tp6825
Rp6826
ag1
(g5
S'J\x7f\x86='
p6827
tp6828
Rp6829
ag1
(g5
S'\x9c\x01\x7f='
p6830
tp6831
Rp6832
ag1
(g5
S'\\\xd2\x82='
p6833
tp6834
Rp6835
ag1
(g5
S'\xd9\xee\x89='
p6836
tp6837
Rp6838
ag1
(g5
S'\x9e\x1a}='
p6839
tp6840
Rp6841
ag1
(g5
S'\x9a}\x86='
p6842
tp6843
Rp6844
ag1
(g5
S'\xd5U\x85='
p6845
tp6846
Rp6847
ag1
(g5
S'\xdc\xd3\x9e='
p6848
tp6849
Rp6850
ag1
(g5
S'\xee\x1f\xa4='
p6851
tp6852
Rp6853
ag1
(g5
S'\x9d\x9b\xa2='
p6854
tp6855
Rp6856
ag1
(g5
S'\xe4\xed\x9d='
p6857
tp6858
Rp6859
ag1
(g5
S'P\x83\xa2='
p6860
tp6861
Rp6862
ag1
(g5
S'>\xfe\xa1='
p6863
tp6864
Rp6865
ag1
(g5
S'V\xe7\xa1='
p6866
tp6867
Rp6868
ag1
(g5
S'[0\xa4='
p6869
tp6870
Rp6871
ag1
(g5
S'n{\xa0='
p6872
tp6873
Rp6874
ag1
(g5
S'\xeb\xc1\xa5='
p6875
tp6876
Rp6877
ag1
(g5
S'|f\x9f='
p6878
tp6879
Rp6880
ag1
(g5
S':\x8e\x9e='
p6881
tp6882
Rp6883
ag1
(g5
S'\xb0\x93\xa0='
p6884
tp6885
Rp6886
ag1
(g5
S'\xbe/\xa1='
p6887
tp6888
Rp6889
ag1
(g5
S'\xb2\xa8\x9f='
p6890
tp6891
Rp6892
ag1
(g5
S'\xf5x\xa1='
p6893
tp6894
Rp6895
ag1
(g5
S'\xd4(\xa2='
p6896
tp6897
Rp6898
ag1
(g5
S'\xcc\x19\x9c='
p6899
tp6900
Rp6901
ag1
(g5
S'$_\x9b='
p6902
tp6903
Rp6904
ag1
(g5
S'.\xf2\xa1='
p6905
tp6906
Rp6907
ag1
(g5
S'U\x88\xa0='
p6908
tp6909
Rp6910
ag1
(g5
S'\x1f\xaf\x9e='
p6911
tp6912
Rp6913
ag1
(g5
S'`=\xa0='
p6914
tp6915
Rp6916
ag1
(g5
S'\xcf\x80\xa2='
p6917
tp6918
Rp6919
ag1
(g5
S'\xb0\xa9\x9e='
p6920
tp6921
Rp6922
ag1
(g5
S'\xcfX\xa2='
p6923
tp6924
Rp6925
ag1
(g5
S'\x86K\x9b='
p6926
tp6927
Rp6928
ag1
(g5
S'\xfc\xb4\x9a='
p6929
tp6930
Rp6931
ag1
(g5
S'pO\xa1='
p6932
tp6933
Rp6934
ag1
(g5
S'sO\x9c='
p6935
tp6936
Rp6937
ag1
(g5
S'\xcb\xad\x9b='
p6938
tp6939
Rp6940
ag1
(g5
S'\xacr\x97='
p6941
tp6942
Rp6943
ag1
(g5
S'^)\x9c='
p6944
tp6945
Rp6946
ag1
(g5
S'R\xd2\x9a='
p6947
tp6948
Rp6949
ag1
(g5
S'\x90\xac\x9a='
p6950
tp6951
Rp6952
ag1
(g5
S'\x1e\xbe\x9b='
p6953
tp6954
Rp6955
ag1
(g5
S'\x00N\x97='
p6956
tp6957
Rp6958
ag1
(g5
S',\x1e\x97='
p6959
tp6960
Rp6961
ag1
(g5
S'C\x1e\x98='
p6962
tp6963
Rp6964
ag1
(g5
S'g\xed\x97='
p6965
tp6966
Rp6967
ag1
(g5
S'"c\x8b='
p6968
tp6969
Rp6970
ag1
(g5
S'\x81\x0e\x90='
p6971
tp6972
Rp6973
ag1
(g5
S'\x9c\xd3\x93='
p6974
tp6975
Rp6976
ag1
(g5
S'\xde\xeb\x92='
p6977
tp6978
Rp6979
ag1
(g5
S'H\x9b\x8b='
p6980
tp6981
Rp6982
ag1
(g5
S'\xe2\xa8\x94='
p6983
tp6984
Rp6985
ag1
(g5
S'\xa0\x93\x91='
p6986
tp6987
Rp6988
ag1
(g5
S',\xa0\x8e='
p6989
tp6990
Rp6991
ag1
(g5
S'\x03\xf0\x90='
p6992
tp6993
Rp6994
ag1
(g5
S'\x8e\x0f\x8f='
p6995
tp6996
Rp6997
ag1
(g5
S'\xfcI\x86='
p6998
tp6999
Rp7000
ag1
(g5
S'2\xeb\x81='
p7001
tp7002
Rp7003
ag1
(g5
S'\x80%\x85='
p7004
tp7005
Rp7006
ag1
(g5
S'8E\x89='
p7007
tp7008
Rp7009
ag1
(g5
S'\xd6\x04\x8f='
p7010
tp7011
Rp7012
ag1
(g5
S'\xde\\\x85='
p7013
tp7014
Rp7015
ag1
(g5
S'\x12K\x83='
p7016
tp7017
Rp7018
ag1
(g5
S'r\xb0\x8b='
p7019
tp7020
Rp7021
ag1
(g5
S'ry\x84='
p7022
tp7023
Rp7024
ag1
(g5
S'4\xc3\x88='
p7025
tp7026
Rp7027
ag1
(g5
S' \xfe7='
p7028
tp7029
Rp7030
ag1
(g5
S'\xda\xf8.='
p7031
tp7032
Rp7033
ag1
(g5
S'\xec\xfb)='
p7034
tp7035
Rp7036
ag1
(g5
S'\x07e<='
p7037
tp7038
Rp7039
ag1
(g5
S'\xc4\x0b8='
p7040
tp7041
Rp7042
ag1
(g5
S'F\x89.='
p7043
tp7044
Rp7045
ag1
(g5
S'\xb4{<='
p7046
tp7047
Rp7048
ag1
(g5
S'~\xb9"='
p7049
tp7050
Rp7051
ag1
(g5
S'pX+='
p7052
tp7053
Rp7054
ag1
(g5
S"\\\x95'="
p7055
tp7056
Rp7057
ag1
(g5
S'zC\x1a='
p7058
tp7059
Rp7060
ag1
(g5
S'y\x1a\x08='
p7061
tp7062
Rp7063
ag1
(g5
S'81\x10='
p7064
tp7065
Rp7066
ag1
(g5
S'\xce\xab\x19='
p7067
tp7068
Rp7069
ag1
(g5
S'\xdc\xea\x0c='
p7070
tp7071
Rp7072
ag1
(g5
S'\xc6O\x0f='
p7073
tp7074
Rp7075
ag1
(g5
S'\xb7\xe1\x1b='
p7076
tp7077
Rp7078
ag1
(g5
S'\x02Y\x11='
p7079
tp7080
Rp7081
ag1
(g5
S'6\x88\x11='
p7082
tp7083
Rp7084
ag1
(g5
S'\xfd$\x17='
p7085
tp7086
Rp7087
ag1
(g5
S'*\xb7\xd2<'
p7088
tp7089
Rp7090
ag1
(g5
S'\x00\xa0\xc7<'
p7091
tp7092
Rp7093
ag1
(g5
S'\xe6\xa4\xc8<'
p7094
tp7095
Rp7096
ag1
(g5
S'\xe8\xf5\xc2<'
p7097
tp7098
Rp7099
ag1
(g5
S'X\xbc\xcb<'
p7100
tp7101
Rp7102
ag1
(g5
S'\x9d\xda\xc2<'
p7103
tp7104
Rp7105
ag1
(g5
S'|+\xc4<'
p7106
tp7107
Rp7108
ag1
(g5
S'*\xa1\xce<'
p7109
tp7110
Rp7111
ag1
(g5
S'wi\xc0<'
p7112
tp7113
Rp7114
ag1
(g5
S'\x08\x1b\xc7<'
p7115
tp7116
Rp7117
ag1
(g5
S'[\xc0\x05='
p7118
tp7119
Rp7120
ag1
(g5
S'\x8c\xd09='
p7121
tp7122
Rp7123
ag1
(g5
S'\x1e\x83\x13='
p7124
tp7125
Rp7126
ag1
(g5
S'2 \x1a='
p7127
tp7128
Rp7129
ag1
(g5
S'xz-='
p7130
tp7131
Rp7132
ag1
(g5
S'&\xac\x1f='
p7133
tp7134
Rp7135
ag1
(g5
S'\xa2\xf2\x17='
p7136
tp7137
Rp7138
ag1
(g5
S'QH*='
p7139
tp7140
Rp7141
ag1
(g5
S'\xc0)$='
p7142
tp7143
Rp7144
ag1
(g5
S'\xa3\x1c\x13='
p7145
tp7146
Rp7147
ag1
(g5
S'\xd48\x80='
p7148
tp7149
Rp7150
ag1
(g5
S'bJ\x82='
p7151
tp7152
Rp7153
ag1
(g5
S'\x9c#s='
p7154
tp7155
Rp7156
ag1
(g5
S'ST}='
p7157
tp7158
Rp7159
ag1
(g5
S'd/{='
p7160
tp7161
Rp7162
ag1
(g5
S'\x16X\x81='
p7163
tp7164
Rp7165
ag1
(g5
S':p\x81='
p7166
tp7167
Rp7168
ag1
(g5
S'l\x85p='
p7169
tp7170
Rp7171
ag1
(g5
S'L\x1ex='
p7172
tp7173
Rp7174
ag1
(g5
S'\x8d\x15x='
p7175
tp7176
Rp7177
ag1
(g5
S'^J|='
p7178
tp7179
Rp7180
ag1
(g5
S'\x07\xcay='
p7181
tp7182
Rp7183
ag1
(g5
S'.a\x7f='
p7184
tp7185
Rp7186
ag1
(g5
S'\xaa[r='
p7187
tp7188
Rp7189
ag1
(g5
S'\x96k\x80='
p7190
tp7191
Rp7192
ag1
(g5
S'|\xebv='
p7193
tp7194
Rp7195
ag1
(g5
S'\xbf\x85v='
p7196
tp7197
Rp7198
ag1
(g5
S'\xa9\x01}='
p7199
tp7200
Rp7201
ag1
(g5
S'\xe2\rt='
p7202
tp7203
Rp7204
ag1
(g5
S'\x9d\x83w='
p7205
tp7206
Rp7207
ag1
(g5
S'e\x03\x80='
p7208
tp7209
Rp7210
ag1
(g5
S'\x14\xbcm='
p7211
tp7212
Rp7213
ag1
(g5
S'\xafo~='
p7214
tp7215
Rp7216
ag1
(g5
S'\xb4\xa2\x82='
p7217
tp7218
Rp7219
ag1
(g5
S'\xe6\xdbq='
p7220
tp7221
Rp7222
ag1
(g5
S'\xfc\xb0\x84='
p7223
tp7224
Rp7225
ag1
(g5
S'\x07\x98y='
p7226
tp7227
Rp7228
ag1
(g5
S'\x08\xe9z='
p7229
tp7230
Rp7231
ag1
(g5
S'f\xee\x82='
p7232
tp7233
Rp7234
ag1
(g5
S'\xa3~\x81='
p7235
tp7236
Rp7237
ag1
(g5
S'\xfc\x83^='
p7238
tp7239
Rp7240
ag1
(g5
S'\x86an='
p7241
tp7242
Rp7243
ag1
(g5
S'\x8c<g='
p7244
tp7245
Rp7246
ag1
(g5
S'\x90*s='
p7247
tp7248
Rp7249
ag1
(g5
S'Xao='
p7250
tp7251
Rp7252
ag1
(g5
S'\xc4ua='
p7253
tp7254
Rp7255
ag1
(g5
S'\\\x19k='
p7256
tp7257
Rp7258
ag1
(g5
S'\xd1\xd7`='
p7259
tp7260
Rp7261
ag1
(g5
S'\xd4\xe8w='
p7262
tp7263
Rp7264
ag1
(g5
S'\xf4\xd4c='
p7265
tp7266
Rp7267
ag1
(g5
S'h\xc3o='
p7268
tp7269
Rp7270
ag1
(g5
S'\x027s='
p7271
tp7272
Rp7273
ag1
(g5
S'-\x82d='
p7274
tp7275
Rp7276
ag1
(g5
S'\x12Gg='
p7277
tp7278
Rp7279
ag1
(g5
S'7Ie='
p7280
tp7281
Rp7282
ag1
(g5
S'\x9b\xdec='
p7283
tp7284
Rp7285
ag1
(g5
S',Qh='
p7286
tp7287
Rp7288
ag1
(g5
S'f\x85e='
p7289
tp7290
Rp7291
ag1
(g5
S'\xdezf='
p7292
tp7293
Rp7294
ag1
(g5
S'\xca\x16h='
p7295
tp7296
Rp7297
ag1
(g5
S'\x8fe[='
p7298
tp7299
Rp7300
ag1
(g5
S'\xe7\xe0p='
p7301
tp7302
Rp7303
ag1
(g5
S'1lS='
p7304
tp7305
Rp7306
ag1
(g5
S'\x96\xf5X='
p7307
tp7308
Rp7309
ag1
(g5
S'\xb6ml='
p7310
tp7311
Rp7312
ag1
(g5
S'H)e='
p7313
tp7314
Rp7315
ag1
(g5
S'>\xb7i='
p7316
tp7317
Rp7318
ag1
(g5
S'\xe6"r='
p7319
tp7320
Rp7321
ag1
(g5
S'\x1e\x1dc='
p7322
tp7323
Rp7324
ag1
(g5
S'\xd4Rd='
p7325
tp7326
Rp7327
ag1
(g5
S'\xee\xb2R='
p7328
tp7329
Rp7330
ag1
(g5
S'\x19\xc3Y='
p7331
tp7332
Rp7333
ag1
(g5
S'W\xeeW='
p7334
tp7335
Rp7336
ag1
(g5
S'~\x0e_='
p7337
tp7338
Rp7339
ag1
(g5
S'L\xccN='
p7340
tp7341
Rp7342
ag1
(g5
S'\x86\x14a='
p7343
tp7344
Rp7345
ag1
(g5
S'\xa1\xd7S='
p7346
tp7347
Rp7348
ag1
(g5
S'\t\xaf^='
p7349
tp7350
Rp7351
ag1
(g5
S'\x1atW='
p7352
tp7353
Rp7354
ag1
(g5
S'5(^='
p7355
tp7356
Rp7357
ag1
(g5
S'\xa4\x01O='
p7358
tp7359
Rp7360
ag1
(g5
S'\xdb\xa1P='
p7361
tp7362
Rp7363
ag1
(g5
S'\x1a\xceZ='
p7364
tp7365
Rp7366
ag1
(g5
S"\x94'T="
p7367
tp7368
Rp7369
ag1
(g5
S'H\x95T='
p7370
tp7371
Rp7372
ag1
(g5
S'\x1d\x0fJ='
p7373
tp7374
Rp7375
ag1
(g5
S'\n@N='
p7376
tp7377
Rp7378
ag1
(g5
S'\xaa9K='
p7379
tp7380
Rp7381
ag1
(g5
S'\xb6\xa9U='
p7382
tp7383
Rp7384
ag1
(g5
S'\xa4Id='
p7385
tp7386
Rp7387
ag1
(g5
S'P\x07R='
p7388
tp7389
Rp7390
ag1
(g5
S'\x81\xaaT='
p7391
tp7392
Rp7393
ag1
(g5
S'\xf6\xa2Y='
p7394
tp7395
Rp7396
ag1
(g5
S'f\x01W='
p7397
tp7398
Rp7399
ag1
(g5
S'a\x92M='
p7400
tp7401
Rp7402
ag1
(g5
S'\xfe\x1fW='
p7403
tp7404
Rp7405
ag1
(g5
S'odS='
p7406
tp7407
Rp7408
ag1
(g5
S'\xd1R\\='
p7409
tp7410
Rp7411
ag1
(g5
S'AkW='
p7412
tp7413
Rp7414
ag1
(g5
S'\x9c\x8d[='
p7415
tp7416
Rp7417
ag1
(g5
S'h#Q='
p7418
tp7419
Rp7420
ag1
(g5
S'\x14\x0cY='
p7421
tp7422
Rp7423
ag1
(g5
S'\xd4MZ='
p7424
tp7425
Rp7426
ag1
(g5
S'L\xfcS='
p7427
tp7428
Rp7429
ag1
(g5
S'j\xb4T='
p7430
tp7431
Rp7432
ag1
(g5
S'\x08WJ='
p7433
tp7434
Rp7435
ag1
(g5
S'p\xbcQ='
p7436
tp7437
Rp7438
ag1
(g5
S'\xce\xa1J='
p7439
tp7440
Rp7441
ag1
(g5
S'\xc6\xb5P='
p7442
tp7443
Rp7444
ag1
(g5
S'\xae\x98L='
p7445
tp7446
Rp7447
ag1
(g5
S'z\xc8M='
p7448
tp7449
Rp7450
ag1
(g5
S'\xa7\xa2Y='
p7451
tp7452
Rp7453
ag1
(g5
S'\x8e"N='
p7454
tp7455
Rp7456
ag1
(g5
S'\xb2e[='
p7457
tp7458
Rp7459
ag1
(g5
S'\x9f\tX='
p7460
tp7461
Rp7462
ag1
(g5
S'\xf4\xaeR='
p7463
tp7464
Rp7465
ag1
(g5
S'U\xa1R='
p7466
tp7467
Rp7468
ag1
(g5
S')\xe9L='
p7469
tp7470
Rp7471
ag1
(g5
S'\xa7\xdaO='
p7472
tp7473
Rp7474
ag1
(g5
S'\xeeAS='
p7475
tp7476
Rp7477
ag1
(g5
S'0\xfeO='
p7478
tp7479
Rp7480
ag1
(g5
S'\xb5\xe2O='
p7481
tp7482
Rp7483
ag1
(g5
S'\x08RP='
p7484
tp7485
Rp7486
ag1
(g5
S'\x80\xebJ='
p7487
tp7488
Rp7489
ag1
(g5
S'\xcc\x81K='
p7490
tp7491
Rp7492
ag1
(g5
S'\xfc\xecL='
p7493
tp7494
Rp7495
ag1
(g5
S'\x14\x92T='
p7496
tp7497
Rp7498
ag1
(g5
S'-\x9cN='
p7499
tp7500
Rp7501
ag1
(g5
S'\x85\xacR='
p7502
tp7503
Rp7504
ag1
(g5
S'\xe7 M='
p7505
tp7506
Rp7507
ag1
(g5
S'\xb0\x89E='
p7508
tp7509
Rp7510
ag1
(g5
S'\x1erI='
p7511
tp7512
Rp7513
ag1
(g5
S'\xf7\x88D='
p7514
tp7515
Rp7516
ag1
(g5
S'D\xf4O='
p7517
tp7518
Rp7519
ag1
(g5
S'5\x0eO='
p7520
tp7521
Rp7522
ag1
(g5
S'p\x99L='
p7523
tp7524
Rp7525
ag1
(g5
S'\xaf\xbaH='
p7526
tp7527
Rp7528
ag1
(g5
S'n-E='
p7529
tp7530
Rp7531
ag1
(g5
S'x\xe8B='
p7532
tp7533
Rp7534
ag1
(g5
S'bbC='
p7535
tp7536
Rp7537
ag1
(g5
S'~%N='
p7538
tp7539
Rp7540
ag1
(g5
S'\xef\xdeF='
p7541
tp7542
Rp7543
ag1
(g5
S'\x1e\x84H='
p7544
tp7545
Rp7546
ag1
(g5
S'\xa3\xa3H='
p7547
tp7548
Rp7549
ag1
(g5
S'\xf3dG='
p7550
tp7551
Rp7552
ag1
(g5
S'l=W='
p7553
tp7554
Rp7555
ag1
(g5
S'\x96\xbf6='
p7556
tp7557
Rp7558
ag1
(g5
S'\xc3\xd2F='
p7559
tp7560
Rp7561
ag1
(g5
S'd\x8fI='
p7562
tp7563
Rp7564
ag1
(g5
S'\xd0fH='
p7565
tp7566
Rp7567
ag1
(g5
S'\xccPJ='
p7568
tp7569
Rp7570
ag1
(g5
S'l\xe1I='
p7571
tp7572
Rp7573
ag1
(g5
S'w\xd1L='
p7574
tp7575
Rp7576
ag1
(g5
S'\x89\x10B='
p7577
tp7578
Rp7579
ag1
(g5
S'\x12 D='
p7580
tp7581
Rp7582
ag1
(g5
S'\x94\x93K='
p7583
tp7584
Rp7585
ag1
(g5
S'\xa9\x99D='
p7586
tp7587
Rp7588
ag1
(g5
S'k\xccC='
p7589
tp7590
Rp7591
ag1
(g5
S'\\1A='
p7592
tp7593
Rp7594
ag1
(g5
S'\xa6#H='
p7595
tp7596
Rp7597
ag1
(g5
S'?\xe3D='
p7598
tp7599
Rp7600
ag1
(g5
S'\xf4\xf7J='
p7601
tp7602
Rp7603
ag1
(g5
S'$=H='
p7604
tp7605
Rp7606
ag1
(g5
S'\x0e\xc4B='
p7607
tp7608
Rp7609
ag1
(g5
S'\x9c\x93G='
p7610
tp7611
Rp7612
ag1
(g5
S'F5S='
p7613
tp7614
Rp7615
ag1
(g5
S'\xf2]<='
p7616
tp7617
Rp7618
ag1
(g5
S'\xb0\xf2<='
p7619
tp7620
Rp7621
ag1
(g5
S'6_H='
p7622
tp7623
Rp7624
ag1
(g5
S'\xb6yB='
p7625
tp7626
Rp7627
ag1
(g5
S'(\xbc<='
p7628
tp7629
Rp7630
ag1
(g5
S'Z\xb8D='
p7631
tp7632
Rp7633
ag1
(g5
S'\n\xc3;='
p7634
tp7635
Rp7636
ag1
(g5
S'\xf2\x05H='
p7637
tp7638
Rp7639
ag1
(g5
S'\\jE='
p7640
tp7641
Rp7642
ag1
(g5
S'\xe9\xebB='
p7643
tp7644
Rp7645
ag1
(g5
S'Q\x9f?='
p7646
tp7647
Rp7648
ag1
(g5
S'\xdc\xeeA='
p7649
tp7650
Rp7651
ag1
(g5
S'\xf3\xc0F='
p7652
tp7653
Rp7654
ag1
(g5
S'\xbawN='
p7655
tp7656
Rp7657
ag1
(g5
S'\xd3\x8fH='
p7658
tp7659
Rp7660
ag1
(g5
S'\xbc\xddK='
p7661
tp7662
Rp7663
ag1
(g5
S'\x9eH=='
p7664
tp7665
Rp7666
ag1
(g5
S'\xa4\x91A='
p7667
tp7668
Rp7669
ag1
(g5
S'\x9c\x91C='
p7670
tp7671
Rp7672
ag1
(g5
S'\x7f\x11O='
p7673
tp7674
Rp7675
ag1
(g5
S'\xf8\xa6N='
p7676
tp7677
Rp7678
ag1
(g5
S'#$@='
p7679
tp7680
Rp7681
ag1
(g5
S'\xe7\xf4H='
p7682
tp7683
Rp7684
ag1
(g5
S'\xf5&Q='
p7685
tp7686
Rp7687
ag1
(g5
S'\x9e\xc6Q='
p7688
tp7689
Rp7690
ag1
(g5
S'\xc9PU='
p7691
tp7692
Rp7693
ag1
(g5
S'\xde\xedL='
p7694
tp7695
Rp7696
ag1
(g5
S'vxM='
p7697
tp7698
Rp7699
ag1
(g5
S'\x9e\xc9I='
p7700
tp7701
Rp7702
ag1
(g5
S'\x13*J='
p7703
tp7704
Rp7705
ag1
(g5
S'!\x14^='
p7706
tp7707
Rp7708
ag1
(g5
S'\x03\xa7K='
p7709
tp7710
Rp7711
ag1
(g5
S'\xa7oM='
p7712
tp7713
Rp7714
ag1
(g5
S'U\x97V='
p7715
tp7716
Rp7717
ag1
(g5
S'\xaeIN='
p7718
tp7719
Rp7720
ag1
(g5
S'\x7f\xfeQ='
p7721
tp7722
Rp7723
ag1
(g5
S'\x14bT='
p7724
tp7725
Rp7726
ag1
(g5
S'\x98@Q='
p7727
tp7728
Rp7729
ag1
(g5
S'\x8d\x02Z='
p7730
tp7731
Rp7732
ag1
(g5
S'5\xdcP='
p7733
tp7734
Rp7735
ag1
(g5
S'\xd6cK='
p7736
tp7737
Rp7738
ag1
(g5
S'\x10\x1fP='
p7739
tp7740
Rp7741
ag1
(g5
S'U*E='
p7742
tp7743
Rp7744
ag1
(g5
S'\xed\xc9P='
p7745
tp7746
Rp7747
ag1
(g5
S'\xa7\xb7E='
p7748
tp7749
Rp7750
ag1
(g5
S'\xf7\x0fC='
p7751
tp7752
Rp7753
ag1
(g5
S'\x04\xffE='
p7754
tp7755
Rp7756
ag1
(g5
S'>\xa2E='
p7757
tp7758
Rp7759
ag1
(g5
S'\xf9+A='
p7760
tp7761
Rp7762
ag1
(g5
S'PxB='
p7763
tp7764
Rp7765
ag1
(g5
S'b\xd2F='
p7766
tp7767
Rp7768
ag1
(g5
S'\x8e\x1bH='
p7769
tp7770
Rp7771
ag1
(g5
S'*\xa9?='
p7772
tp7773
Rp7774
ag1
(g5
S'\xf6Q@='
p7775
tp7776
Rp7777
ag1
(g5
S'\x8c5B='
p7778
tp7779
Rp7780
ag1
(g5
S'28?='
p7781
tp7782
Rp7783
ag1
(g5
S'\xe2V>='
p7784
tp7785
Rp7786
ag1
(g5
S'\xf4\xe2D='
p7787
tp7788
Rp7789
ag1
(g5
S'\xae|A='
p7790
tp7791
Rp7792
ag1
(g5
S'\x08IM='
p7793
tp7794
Rp7795
ag1
(g5
S'4\xf39='
p7796
tp7797
Rp7798
ag1
(g5
S'\xf1\xe7G='
p7799
tp7800
Rp7801
ag1
(g5
S'V\t;='
p7802
tp7803
Rp7804
ag1
(g5
S'\xaa\xe5C='
p7805
tp7806
Rp7807
ag1
(g5
S'K+B='
p7808
tp7809
Rp7810
ag1
(g5
S'F%9='
p7811
tp7812
Rp7813
ag1
(g5
S'X\x9dD='
p7814
tp7815
Rp7816
ag1
(g5
S'\r\x99M='
p7817
tp7818
Rp7819
ag1
(g5
S'\xfcaD='
p7820
tp7821
Rp7822
ag1
(g5
S'\xc2\xaa;='
p7823
tp7824
Rp7825
ag1
(g5
S'=\x96M='
p7826
tp7827
Rp7828
ag1
(g5
S'\xd8\xba8='
p7829
tp7830
Rp7831
ag1
(g5
S'NQI='
p7832
tp7833
Rp7834
ag1
(g5
S'\x053=='
p7835
tp7836
Rp7837
ag1
(g5
S'd\xdc3='
p7838
tp7839
Rp7840
ag1
(g5
S'kF=='
p7841
tp7842
Rp7843
ag1
(g5
S'&\xde7='
p7844
tp7845
Rp7846
ag1
(g5
S'<P<='
p7847
tp7848
Rp7849
ag1
(g5
S'\xb1\x89:='
p7850
tp7851
Rp7852
ag1
(g5
S'\xa8\x918='
p7853
tp7854
Rp7855
ag1
(g5
S',\x8fC='
p7856
tp7857
Rp7858
ag1
(g5
S'iH9='
p7859
tp7860
Rp7861
ag1
(g5
S'\xc2\x13>='
p7862
tp7863
Rp7864
ag1
(g5
S'\xe1G;='
p7865
tp7866
Rp7867
ag1
(g5
S'\xfa\x885='
p7868
tp7869
Rp7870
ag1
(g5
S'\xd0\xe06='
p7871
tp7872
Rp7873
ag1
(g5
S'\xce\x81:='
p7874
tp7875
Rp7876
ag1
(g5
S'\xe3\xc1F='
p7877
tp7878
Rp7879
ag1
(g5
S'\xd4\x82B='
p7880
tp7881
Rp7882
ag1
(g5
S'\xee\xc63='
p7883
tp7884
Rp7885
ag1
(g5
S'\xbd\xc8?='
p7886
tp7887
Rp7888
ag1
(g5
S'<ZB='
p7889
tp7890
Rp7891
ag1
(g5
S'\xa4\x9fA='
p7892
tp7893
Rp7894
ag1
(g5
S'\x85\xf34='
p7895
tp7896
Rp7897
ag1
(g5
S'\xce\x17\x93='
p7898
tp7899
Rp7900
ag1
(g5
S'\xdaT\x98='
p7901
tp7902
Rp7903
ag1
(g5
S'\x86\x9a\x94='
p7904
tp7905
Rp7906
ag1
(g5
S'\xaa\xd1\x97='
p7907
tp7908
Rp7909
ag1
(g5
S'P\xd3\x99='
p7910
tp7911
Rp7912
ag1
(g5
S'\x1cy\x90='
p7913
tp7914
Rp7915
ag1
(g5
S'n\xf9\x94='
p7916
tp7917
Rp7918
ag1
(g5
S'\xe6\xf8\x97='
p7919
tp7920
Rp7921
ag1
(g5
S'\xdb\xe0\x99='
p7922
tp7923
Rp7924
ag1
(g5
S'\x8a\xd8\x94='
p7925
tp7926
Rp7927
ag1
(g5
S'J\x07\x9d='
p7928
tp7929
Rp7930
ag1
(g5
S'Rg\x9c='
p7931
tp7932
Rp7933
ag1
(g5
S'\xd4\x0e\x9c='
p7934
tp7935
Rp7936
ag1
(g5
S'\xd1\t\x97='
p7937
tp7938
Rp7939
ag1
(g5
S'\xd8\x9d\x9d='
p7940
tp7941
Rp7942
ag1
(g5
S'\x16\xe2\x9a='
p7943
tp7944
Rp7945
ag1
(g5
S'F\xc3\x9e='
p7946
tp7947
Rp7948
ag1
(g5
S'\x0c`\x9e='
p7949
tp7950
Rp7951
ag1
(g5
S'\xac0\x9b='
p7952
tp7953
Rp7954
ag1
(g5
S'\x94r\x98='
p7955
tp7956
Rp7957
ag1
(g5
S'\xdc\xbf*='
p7958
tp7959
Rp7960
ag1
(g5
S'\x82\xf6&='
p7961
tp7962
Rp7963
ag1
(g5
S'R<7='
p7964
tp7965
Rp7966
ag1
(g5
S'`O.='
p7967
tp7968
Rp7969
ag1
(g5
S'\xa4\xfa\x1f='
p7970
tp7971
Rp7972
ag1
(g5
S'\x16c\x1e='
p7973
tp7974
Rp7975
ag1
(g5
S'$\x11-='
p7976
tp7977
Rp7978
ag1
(g5
S'\xba\xb92='
p7979
tp7980
Rp7981
ag1
(g5
S'\x04B\x1f='
p7982
tp7983
Rp7984
ag1
(g5
S'\x94\xa2%='
p7985
tp7986
Rp7987
ag1
(g5
S'\x98\xc1\xd7<'
p7988
tp7989
Rp7990
ag1
(g5
S'h\x16\xd9<'
p7991
tp7992
Rp7993
ag1
(g5
S'\xac\xe7\xe0<'
p7994
tp7995
Rp7996
ag1
(g5
S'2\xa9\xdc<'
p7997
tp7998
Rp7999
ag1
(g5
S'%5\xd6<'
p8000
tp8001
Rp8002
ag1
(g5
S'\x18"\xdc<'
p8003
tp8004
Rp8005
ag1
(g5
S'V5\xd2<'
p8006
tp8007
Rp8008
ag1
(g5
S'\xeez\xdb<'
p8009
tp8010
Rp8011
ag1
(g5
S'H \xd6<'
p8012
tp8013
Rp8014
ag1
(g5
S'\xc0\x7f\xd0<'
p8015
tp8016
Rp8017
ag1
(g5
S'o\x92C='
p8018
tp8019
Rp8020
ag1
(g5
S'\x06\x12Z='
p8021
tp8022
Rp8023
ag1
(g5
S'\xd6;2='
p8024
tp8025
Rp8026
ag1
(g5
S'\xe2@=='
p8027
tp8028
Rp8029
ag1
(g5
S'+V=='
p8030
tp8031
Rp8032
ag1
(g5
S'eP5='
p8033
tp8034
Rp8035
ag1
(g5
S'\xaa\x92;='
p8036
tp8037
Rp8038
ag1
(g5
S'>\x00H='
p8039
tp8040
Rp8041
ag1
(g5
S'\x06g#='
p8042
tp8043
Rp8044
ag1
(g5
S'&:/='
p8045
tp8046
Rp8047
ag1
(g5
S'\xc6\xd4}='
p8048
tp8049
Rp8050
ag1
(g5
S'\xc5\x16v='
p8051
tp8052
Rp8053
ag1
(g5
S'\x08Nu='
p8054
tp8055
Rp8056
ag1
(g5
S'n)w='
p8057
tp8058
Rp8059
ag1
(g5
S'i\x02w='
p8060
tp8061
Rp8062
ag1
(g5
S'\xb2\xd7z='
p8063
tp8064
Rp8065
ag1
(g5
S'\x18\x13w='
p8066
tp8067
Rp8068
ag1
(g5
S'Z\rz='
p8069
tp8070
Rp8071
ag1
(g5
S'\x90Ip='
p8072
tp8073
Rp8074
ag1
(g5
S'x\xc7p='
p8075
tp8076
Rp8077
ag1
(g5
S'#\x81{='
p8078
tp8079
Rp8080
ag1
(g5
S'\x8frz='
p8081
tp8082
Rp8083
ag1
(g5
S'\xdc\x1av='
p8084
tp8085
Rp8086
ag1
(g5
S'u\nn='
p8087
tp8088
Rp8089
ag1
(g5
S'\x88\xday='
p8090
tp8091
Rp8092
ag1
(g5
S'\xd4\xe3l='
p8093
tp8094
Rp8095
ag1
(g5
S'n\xcbx='
p8096
tp8097
Rp8098
ag1
(g5
S'\xc8|s='
p8099
tp8100
Rp8101
ag1
(g5
S'\xe2&i='
p8102
tp8103
Rp8104
ag1
(g5
S'\x15en='
p8105
tp8106
Rp8107
ag1
(g5
S'\xe2\xede='
p8108
tp8109
Rp8110
ag1
(g5
S':\xeag='
p8111
tp8112
Rp8113
ag1
(g5
S'2\x82g='
p8114
tp8115
Rp8116
ag1
(g5
S'F\xefr='
p8117
tp8118
Rp8119
ag1
(g5
S'A\x97]='
p8120
tp8121
Rp8122
ag1
(g5
S'4lc='
p8123
tp8124
Rp8125
ag1
(g5
S'\xbe\x13f='
p8126
tp8127
Rp8128
ag1
(g5
S'\x86\x1dg='
p8129
tp8130
Rp8131
ag1
(g5
S'\xa0\xbbn='
p8132
tp8133
Rp8134
ag1
(g5
S'\x9aNe='
p8135
tp8136
Rp8137
ag1
(g5
S'\x8d%d='
p8138
tp8139
Rp8140
ag1
(g5
S'\x02\xdco='
p8141
tp8142
Rp8143
ag1
(g5
S'\xa4\xc8{='
p8144
tp8145
Rp8146
ag1
(g5
S'\x82_f='
p8147
tp8148
Rp8149
ag1
(g5
S'-eg='
p8150
tp8151
Rp8152
ag1
(g5
S'@Dg='
p8153
tp8154
Rp8155
ag1
(g5
S'\xea5`='
p8156
tp8157
Rp8158
ag1
(g5
S',\x01q='
p8159
tp8160
Rp8161
ag1
(g5
S'\xc2\xeck='
p8162
tp8163
Rp8164
ag1
(g5
S'\xb4\x1ds='
p8165
tp8166
Rp8167
ag1
(g5
S',\xe6c='
p8168
tp8169
Rp8170
ag1
(g5
S'X\xc3x='
p8171
tp8172
Rp8173
ag1
(g5
S'7@r='
p8174
tp8175
Rp8176
ag1
(g5
S'\x04\xcdi='
p8177
tp8178
Rp8179
ag1
(g5
S'5Uq='
p8180
tp8181
Rp8182
ag1
(g5
S'.\xe0e='
p8183
tp8184
Rp8185
ag1
(g5
S'\xdc\x9bi='
p8186
tp8187
Rp8188
ag1
(g5
S'4\x14h='
p8189
tp8190
Rp8191
ag1
(g5
S'V\xd7k='
p8192
tp8193
Rp8194
ag1
(g5
S'\xc2\x8bk='
p8195
tp8196
Rp8197
ag1
(g5
S'(\x96m='
p8198
tp8199
Rp8200
ag1
(g5
S'DFo='
p8201
tp8202
Rp8203
ag1
(g5
S' Vo='
p8204
tp8205
Rp8206
ag1
(g5
S'{ s='
p8207
tp8208
Rp8209
ag1
(g5
S'~yp='
p8210
tp8211
Rp8212
ag1
(g5
S'\xc2_n='
p8213
tp8214
Rp8215
ag1
(g5
S'\x07\xf3f='
p8216
tp8217
Rp8218
ag1
(g5
S'\xdc\x0ct='
p8219
tp8220
Rp8221
ag1
(g5
S'\x9c\xd2r='
p8222
tp8223
Rp8224
ag1
(g5
S'}\xb6j='
p8225
tp8226
Rp8227
ag1
(g5
S'\x185c='
p8228
tp8229
Rp8230
ag1
(g5
S'\x02\xdbo='
p8231
tp8232
Rp8233
ag1
(g5
S'\xc5\x0cg='
p8234
tp8235
Rp8236
ag1
(g5
S'\xe5Me='
p8237
tp8238
Rp8239
ag1
(g5
S'2\xd1m='
p8240
tp8241
Rp8242
ag1
(g5
S'\xd1$e='
p8243
tp8244
Rp8245
ag1
(g5
S'T\xdbc='
p8246
tp8247
Rp8248
ag1
(g5
S'\xba=o='
p8249
tp8250
Rp8251
ag1
(g5
S'E\x8bd='
p8252
tp8253
Rp8254
ag1
(g5
S'vge='
p8255
tp8256
Rp8257
ag1
(g5
S'tYc='
p8258
tp8259
Rp8260
ag1
(g5
S't\tU='
p8261
tp8262
Rp8263
ag1
(g5
S'@\x90V='
p8264
tp8265
Rp8266
ag1
(g5
S'6-[='
p8267
tp8268
Rp8269
ag1
(g5
S'\x90\xb3T='
p8270
tp8271
Rp8272
ag1
(g5
S'\x88,b='
p8273
tp8274
Rp8275
ag1
(g5
S'\xc3\x1d^='
p8276
tp8277
Rp8278
ag1
(g5
S'-;c='
p8279
tp8280
Rp8281
ag1
(g5
S'\x1c\xa7b='
p8282
tp8283
Rp8284
ag1
(g5
S'ox^='
p8285
tp8286
Rp8287
ag1
(g5
S'\xf5\xee`='
p8288
tp8289
Rp8290
ag1
(g5
S'4\x8ee='
p8291
tp8292
Rp8293
ag1
(g5
S'\x94mg='
p8294
tp8295
Rp8296
ag1
(g5
S'4\xcb_='
p8297
tp8298
Rp8299
ag1
(g5
S'\x06\x1d^='
p8300
tp8301
Rp8302
ag1
(g5
S'\xaawY='
p8303
tp8304
Rp8305
ag1
(g5
S'(\x8db='
p8306
tp8307
Rp8308
ag1
(g5
S'!\xaeZ='
p8309
tp8310
Rp8311
ag1
(g5
S'rjh='
p8312
tp8313
Rp8314
ag1
(g5
S'\xf8l]='
p8315
tp8316
Rp8317
ag1
(g5
S'\xa8[]='
p8318
tp8319
Rp8320
ag1
(g5
S'n\xa7e='
p8321
tp8322
Rp8323
ag1
(g5
S'xkh='
p8324
tp8325
Rp8326
ag1
(g5
S'U\xa3U='
p8327
tp8328
Rp8329
ag1
(g5
S'\\yZ='
p8330
tp8331
Rp8332
ag1
(g5
S'\xe6wT='
p8333
tp8334
Rp8335
ag1
(g5
S'\x8a\x9a]='
p8336
tp8337
Rp8338
ag1
(g5
S'|\xcd_='
p8339
tp8340
Rp8341
ag1
(g5
S'\xc1\xa5\\='
p8342
tp8343
Rp8344
ag1
(g5
S'\x8buV='
p8345
tp8346
Rp8347
ag1
(g5
S'\xc4\x88Y='
p8348
tp8349
Rp8350
ag1
(g5
S')\x1c\\='
p8351
tp8352
Rp8353
ag1
(g5
S'f\xd6_='
p8354
tp8355
Rp8356
ag1
(g5
S'X\xd5_='
p8357
tp8358
Rp8359
ag1
(g5
S'~Md='
p8360
tp8361
Rp8362
ag1
(g5
S'\x8a\x84b='
p8363
tp8364
Rp8365
ag1
(g5
S'%MT='
p8366
tp8367
Rp8368
ag1
(g5
S'\xe7\xa9_='
p8369
tp8370
Rp8371
ag1
(g5
S'\x94^a='
p8372
tp8373
Rp8374
ag1
(g5
S'\xa5Jh='
p8375
tp8376
Rp8377
ag1
(g5
S'N\xb8T='
p8378
tp8379
Rp8380
ag1
(g5
S'mEQ='
p8381
tp8382
Rp8383
ag1
(g5
S'@"Z='
p8384
tp8385
Rp8386
ag1
(g5
S'\xda\xbeT='
p8387
tp8388
Rp8389
ag1
(g5
S'\xf6\r`='
p8390
tp8391
Rp8392
ag1
(g5
S'\xca:\\='
p8393
tp8394
Rp8395
ag1
(g5
S'\x1fk[='
p8396
tp8397
Rp8398
ag1
(g5
S'\xf3cS='
p8399
tp8400
Rp8401
ag1
(g5
S'\xc2AO='
p8402
tp8403
Rp8404
ag1
(g5
S'\x13O[='
p8405
tp8406
Rp8407
ag1
(g5
S'|\xf0E='
p8408
tp8409
Rp8410
ag1
(g5
S',\x85L='
p8411
tp8412
Rp8413
ag1
(g5
S'\x18\xb4Q='
p8414
tp8415
Rp8416
ag1
(g5
S'\x05\x01N='
p8417
tp8418
Rp8419
ag1
(g5
S'\xeabW='
p8420
tp8421
Rp8422
ag1
(g5
S'q\xf6[='
p8423
tp8424
Rp8425
ag1
(g5
S'\x98uR='
p8426
tp8427
Rp8428
ag1
(g5
S'\x80bR='
p8429
tp8430
Rp8431
ag1
(g5
S'\xb9\xd2S='
p8432
tp8433
Rp8434
ag1
(g5
S'\xb6>T='
p8435
tp8436
Rp8437
ag1
(g5
S'G]L='
p8438
tp8439
Rp8440
ag1
(g5
S'\x00aM='
p8441
tp8442
Rp8443
ag1
(g5
S' pR='
p8444
tp8445
Rp8446
ag1
(g5
S'\xc2\x01R='
p8447
tp8448
Rp8449
ag1
(g5
S'W\xcfZ='
p8450
tp8451
Rp8452
ag1
(g5
S'\xfa\xd8Q='
p8453
tp8454
Rp8455
ag1
(g5
S'\xf0fZ='
p8456
tp8457
Rp8458
ag1
(g5
S'\xb4TN='
p8459
tp8460
Rp8461
ag1
(g5
S'<\xb8U='
p8462
tp8463
Rp8464
ag1
(g5
S'q\xcea='
p8465
tp8466
Rp8467
ag1
(g5
S'\x92\xf0G='
p8468
tp8469
Rp8470
ag1
(g5
S'\xb6~L='
p8471
tp8472
Rp8473
ag1
(g5
S'\x94\xc7J='
p8474
tp8475
Rp8476
ag1
(g5
S'\xb7:P='
p8477
tp8478
Rp8479
ag1
(g5
S'0\nP='
p8480
tp8481
Rp8482
ag1
(g5
S'\x90\x8fR='
p8483
tp8484
Rp8485
ag1
(g5
S'\xe9HK='
p8486
tp8487
Rp8488
ag1
(g5
S'\x08\xfeM='
p8489
tp8490
Rp8491
ag1
(g5
S'WDR='
p8492
tp8493
Rp8494
ag1
(g5
S'\xea\xc6W='
p8495
tp8496
Rp8497
ag1
(g5
S'z`R='
p8498
tp8499
Rp8500
ag1
(g5
S'\xec.Q='
p8501
tp8502
Rp8503
ag1
(g5
S'n\xc8L='
p8504
tp8505
Rp8506
ag1
(g5
S'\xea\xafH='
p8507
tp8508
Rp8509
ag1
(g5
S'u\xe1O='
p8510
tp8511
Rp8512
ag1
(g5
S'IAJ='
p8513
tp8514
Rp8515
ag1
(g5
S'\xda\x06N='
p8516
tp8517
Rp8518
ag1
(g5
S'\xa2\x01F='
p8519
tp8520
Rp8521
ag1
(g5
S'\x83DT='
p8522
tp8523
Rp8524
ag1
(g5
S'\x89\x06N='
p8525
tp8526
Rp8527
ag1
(g5
S'\xda\x86R='
p8528
tp8529
Rp8530
ag1
(g5
S'\x9e\xb4W='
p8531
tp8532
Rp8533
ag1
(g5
S'\xf7\xecS='
p8534
tp8535
Rp8536
ag1
(g5
S'\xddYX='
p8537
tp8538
Rp8539
ag1
(g5
S'l\x97Z='
p8540
tp8541
Rp8542
ag1
(g5
S'\xc8aZ='
p8543
tp8544
Rp8545
ag1
(g5
S'\xac\x8fS='
p8546
tp8547
Rp8548
ag1
(g5
S'\xd0\x10T='
p8549
tp8550
Rp8551
ag1
(g5
S'\xe0rT='
p8552
tp8553
Rp8554
ag1
(g5
S'J!Q='
p8555
tp8556
Rp8557
ag1
(g5
S'\x8f\xacV='
p8558
tp8559
Rp8560
ag1
(g5
S'O\xc8O='
p8561
tp8562
Rp8563
ag1
(g5
S'\xab\xe5I='
p8564
tp8565
Rp8566
ag1
(g5
S'4\xe3N='
p8567
tp8568
Rp8569
ag1
(g5
S'S\xe1J='
p8570
tp8571
Rp8572
ag1
(g5
S'\xa0mW='
p8573
tp8574
Rp8575
ag1
(g5
S'\xde\xceJ='
p8576
tp8577
Rp8578
ag1
(g5
S'\x06\xb2I='
p8579
tp8580
Rp8581
ag1
(g5
S'[NB='
p8582
tp8583
Rp8584
ag1
(g5
S'\xa8\xf8P='
p8585
tp8586
Rp8587
ag1
(g5
S'\x88\x81P='
p8588
tp8589
Rp8590
ag1
(g5
S'\x9a\nQ='
p8591
tp8592
Rp8593
ag1
(g5
S'\xc1FJ='
p8594
tp8595
Rp8596
ag1
(g5
S'\xba\tL='
p8597
tp8598
Rp8599
ag1
(g5
S'T\xcfK='
p8600
tp8601
Rp8602
ag1
(g5
S'\xf2\xf3@='
p8603
tp8604
Rp8605
ag1
(g5
S'8{`='
p8606
tp8607
Rp8608
ag1
(g5
S'}\x1aX='
p8609
tp8610
Rp8611
ag1
(g5
S'\x92bS='
p8612
tp8613
Rp8614
ag1
(g5
S'RyM='
p8615
tp8616
Rp8617
ag1
(g5
S'\x8a>G='
p8618
tp8619
Rp8620
ag1
(g5
S'\xf8\x92?='
p8621
tp8622
Rp8623
ag1
(g5
S'P\xd0M='
p8624
tp8625
Rp8626
ag1
(g5
S'\xf3\x90K='
p8627
tp8628
Rp8629
ag1
(g5
S'\x83\xc6E='
p8630
tp8631
Rp8632
ag1
(g5
S'liG='
p8633
tp8634
Rp8635
ag1
(g5
S'\x04bE='
p8636
tp8637
Rp8638
ag1
(g5
S'\x90\xbdF='
p8639
tp8640
Rp8641
ag1
(g5
S'F)D='
p8642
tp8643
Rp8644
ag1
(g5
S'\ti@='
p8645
tp8646
Rp8647
ag1
(g5
S'\xcct@='
p8648
tp8649
Rp8650
ag1
(g5
S'8A?='
p8651
tp8652
Rp8653
ag1
(g5
S'\xbf\xe2=='
p8654
tp8655
Rp8656
ag1
(g5
S'\xe2\xefG='
p8657
tp8658
Rp8659
ag1
(g5
S'\xfc\x1aC='
p8660
tp8661
Rp8662
ag1
(g5
S'\x90\xb5C='
p8663
tp8664
Rp8665
ag1
(g5
S'\xaa\xe4>='
p8666
tp8667
Rp8668
ag1
(g5
S'^T;='
p8669
tp8670
Rp8671
ag1
(g5
S"'#L="
p8672
tp8673
Rp8674
ag1
(g5
S'\xc2D?='
p8675
tp8676
Rp8677
ag1
(g5
S'\xb2\xd7R='
p8678
tp8679
Rp8680
ag1
(g5
S'\x90\xeeN='
p8681
tp8682
Rp8683
ag1
(g5
S'\xe6CE='
p8684
tp8685
Rp8686
ag1
(g5
S'RVJ='
p8687
tp8688
Rp8689
ag1
(g5
S'\x97\xf6I='
p8690
tp8691
Rp8692
ag1
(g5
S'f)G='
p8693
tp8694
Rp8695
ag1
(g5
S'./@='
p8696
tp8697
Rp8698
ag1
(g5
S'k\x0f@='
p8699
tp8700
Rp8701
ag1
(g5
S':\x87A='
p8702
tp8703
Rp8704
ag1
(g5
S'\x90\xf0?='
p8705
tp8706
Rp8707
ag1
(g5
S'\xb2\xa4S='
p8708
tp8709
Rp8710
ag1
(g5
S'N\xdfQ='
p8711
tp8712
Rp8713
ag1
(g5
S'\x06\x1aO='
p8714
tp8715
Rp8716
ag1
(g5
S't\x8aY='
p8717
tp8718
Rp8719
ag1
(g5
S'\x94\xb9T='
p8720
tp8721
Rp8722
ag1
(g5
S'\xce\xd9N='
p8723
tp8724
Rp8725
ag1
(g5
S'n\x90Z='
p8726
tp8727
Rp8728
ag1
(g5
S'\x07\xc3V='
p8729
tp8730
Rp8731
ag1
(g5
S'\xce}U='
p8732
tp8733
Rp8734
ag1
(g5
S'\xa3$[='
p8735
tp8736
Rp8737
ag1
(g5
S'H\xe7a='
p8738
tp8739
Rp8740
ag1
(g5
S'\xda\xabW='
p8741
tp8742
Rp8743
ag1
(g5
S'\xa8\xd4X='
p8744
tp8745
Rp8746
ag1
(g5
S'W\xe4U='
p8747
tp8748
Rp8749
ag1
(g5
S'\xe0\xc0L='
p8750
tp8751
Rp8752
ag1
(g5
S'h\xfdO='
p8753
tp8754
Rp8755
ag1
(g5
S'T\x88Z='
p8756
tp8757
Rp8758
ag1
(g5
S'\x9a\xdaP='
p8759
tp8760
Rp8761
ag1
(g5
S'B\x0cV='
p8762
tp8763
Rp8764
ag1
(g5
S'\x91\x90T='
p8765
tp8766
Rp8767
ag1
(g5
S'\x9c\x1a9='
p8768
tp8769
Rp8770
ag1
(g5
S'V\x888='
p8771
tp8772
Rp8773
ag1
(g5
S',$3='
p8774
tp8775
Rp8776
ag1
(g5
S'r<I='
p8777
tp8778
Rp8779
ag1
(g5
S'\xf2\x977='
p8780
tp8781
Rp8782
ag1
(g5
S'\x9a\tB='
p8783
tp8784
Rp8785
ag1
(g5
S'\xcajE='
p8786
tp8787
Rp8788
ag1
(g5
S'\x13@B='
p8789
tp8790
Rp8791
ag1
(g5
S'\xd0WB='
p8792
tp8793
Rp8794
ag1
(g5
S'\xf9\xd4<='
p8795
tp8796
Rp8797
ag1
(g5
S'\x92/\x8d='
p8798
tp8799
Rp8800
ag1
(g5
S'\xba\xaa\x94='
p8801
tp8802
Rp8803
ag1
(g5
S'\x11\xc8\x93='
p8804
tp8805
Rp8806
ag1
(g5
S'\x94e\x91='
p8807
tp8808
Rp8809
ag1
(g5
S'\x91\xc0\x90='
p8810
tp8811
Rp8812
ag1
(g5
S'\xe3\x8e\x92='
p8813
tp8814
Rp8815
ag1
(g5
S'\xc6\xe1\x92='
p8816
tp8817
Rp8818
ag1
(g5
S'F\xc0\x94='
p8819
tp8820
Rp8821
ag1
(g5
S'\xbe\xbd\x8f='
p8822
tp8823
Rp8824
ag1
(g5
S'\xbb\xbd\x8e='
p8825
tp8826
Rp8827
ag1
(g5
S'\xa5\x8a\x83='
p8828
tp8829
Rp8830
ag1
(g5
S'\xb2\x97\x83='
p8831
tp8832
Rp8833
ag1
(g5
S'M\xba}='
p8834
tp8835
Rp8836
ag1
(g5
S'\x19\xdd\x81='
p8837
tp8838
Rp8839
ag1
(g5
S'\xc6\xb8}='
p8840
tp8841
Rp8842
ag1
(g5
S'2\x8ap='
p8843
tp8844
Rp8845
ag1
(g5
S'n\xc5\x86='
p8846
tp8847
Rp8848
ag1
(g5
S'd\xf1~='
p8849
tp8850
Rp8851
ag1
(g5
S'\xfd3\x83='
p8852
tp8853
Rp8854
ag1
(g5
S'~\xd7\x85='
p8855
tp8856
Rp8857
ag1
(g5
S'\xe4\xb2g='
p8858
tp8859
Rp8860
ag1
(g5
S'\xa5Lm='
p8861
tp8862
Rp8863
ag1
(g5
S'\xd8\xccq='
p8864
tp8865
Rp8866
ag1
(g5
S'\x18\xd4g='
p8867
tp8868
Rp8869
ag1
(g5
S'\x18dd='
p8870
tp8871
Rp8872
ag1
(g5
S'\n\x11b='
p8873
tp8874
Rp8875
ag1
(g5
S'\xa4fh='
p8876
tp8877
Rp8878
ag1
(g5
S'n\xd3k='
p8879
tp8880
Rp8881
ag1
(g5
S'\x05\xc4e='
p8882
tp8883
Rp8884
ag1
(g5
S'\xac\xd1g='
p8885
tp8886
Rp8887
ag1
(g5
S'(\x1f\\<'
p8888
tp8889
Rp8890
ag1
(g5
S'\xe6iW<'
p8891
tp8892
Rp8893
ag1
(g5
S'\xf1{0<'
p8894
tp8895
Rp8896
ag1
(g5
S'/\xf4?<'
p8897
tp8898
Rp8899
ag1
(g5
S'df)<'
p8900
tp8901
Rp8902
ag1
(g5
S'\xca\xc7?<'
p8903
tp8904
Rp8905
ag1
(g5
S'@jR<'
p8906
tp8907
Rp8908
ag1
(g5
S'Eq+<'
p8909
tp8910
Rp8911
ag1
(g5
S'l\xce}<'
p8912
tp8913
Rp8914
ag1
(g5
S'\xb5`Y<'
p8915
tp8916
Rp8917
ag1
(g5
S'`m\xdd<'
p8918
tp8919
Rp8920
ag1
(g5
S'\x80\x19\xdc<'
p8921
tp8922
Rp8923
ag1
(g5
S'F\x9e\xe0<'
p8924
tp8925
Rp8926
ag1
(g5
S'(\x9d\xe2<'
p8927
tp8928
Rp8929
ag1
(g5
S'$\xe9\xe2<'
p8930
tp8931
Rp8932
ag1
(g5
S'\xa6;\xed<'
p8933
tp8934
Rp8935
ag1
(g5
S'N\x1a\xed<'
p8936
tp8937
Rp8938
ag1
(g5
S'*\x99\xeb<'
p8939
tp8940
Rp8941
ag1
(g5
S'\x07\xa5\xca<'
p8942
tp8943
Rp8944
ag1
(g5
S'\x8a\x8a\xe1<'
p8945
tp8946
Rp8947
ag1
(g5
S'\xc8\xb7\xdf<'
p8948
tp8949
Rp8950
ag1
(g5
S'M\xfe\xd8<'
p8951
tp8952
Rp8953
ag1
(g5
S'\xd8\x80\xd5<'
p8954
tp8955
Rp8956
ag1
(g5
S'\xd8\xd6\xdc<'
p8957
tp8958
Rp8959
ag1
(g5
S'\xf7\xb8\xe1<'
p8960
tp8961
Rp8962
ag1
(g5
S'7\xbb\xd1<'
p8963
tp8964
Rp8965
ag1
(g5
S'\xd6\x8b\xe0<'
p8966
tp8967
Rp8968
ag1
(g5
S'\x14\xcd\xd9<'
p8969
tp8970
Rp8971
ag1
(g5
S'\x92\xdf\xe4<'
p8972
tp8973
Rp8974
ag1
(g5
S'^\xe9\xdb<'
p8975
tp8976
Rp8977
ag1
(g5
S'h\x06\xcb<'
p8978
tp8979
Rp8980
ag1
(g5
S'@\x8c\xcd<'
p8981
tp8982
Rp8983
ag1
(g5
S'\xcdV\xc7<'
p8984
tp8985
Rp8986
ag1
(g5
S',$\xce<'
p8987
tp8988
Rp8989
ag1
(g5
S'\x90\xae\xd3<'
p8990
tp8991
Rp8992
ag1
(g5
S'\x12]\xca<'
p8993
tp8994
Rp8995
ag1
(g5
S'\x0f\x96\xcd<'
p8996
tp8997
Rp8998
ag1
(g5
S'\xcc\xc9\xd4<'
p8999
tp9000
Rp9001
ag1
(g5
S'\xbc~\xca<'
p9002
tp9003
Rp9004
ag1
(g5
S'\x18\x19\xcb<'
p9005
tp9006
Rp9007
ag1
(g5
S'r>\xcf<'
p9008
tp9009
Rp9010
ag1
(g5
S'\xdfh\xd1<'
p9011
tp9012
Rp9013
ag1
(g5
S'\xb1m\xd4<'
p9014
tp9015
Rp9016
ag1
(g5
S'*\xd0\xcd<'
p9017
tp9018
Rp9019
ag1
(g5
S'\x146\xe1<'
p9020
tp9021
Rp9022
ag1
(g5
S'8\xad\xd4<'
p9023
tp9024
Rp9025
ag1
(g5
S'\xcb>\xcf<'
p9026
tp9027
Rp9028
ag1
(g5
S'\x95\xc0\xc7<'
p9029
tp9030
Rp9031
ag1
(g5
S'\x0f9\xd5<'
p9032
tp9033
Rp9034
ag1
(g5
S's\x1f\xd5<'
p9035
tp9036
Rp9037
ag1
(g5
S'3\xb9\x10='
p9038
tp9039
Rp9040
ag1
(g5
S'\x91\xe0\xf9<'
p9041
tp9042
Rp9043
ag1
(g5
S'\x08;\x08='
p9044
tp9045
Rp9046
ag1
(g5
S'2\xb5\x11='
p9047
tp9048
Rp9049
ag1
(g5
S'}\xa8\xdf<'
p9050
tp9051
Rp9052
ag1
(g5
S't`\x16='
p9053
tp9054
Rp9055
ag1
(g5
S')\xf0\n='
p9056
tp9057
Rp9058
ag1
(g5
S'\x9e1\xfe<'
p9059
tp9060
Rp9061
ag1
(g5
S'a\xcf\xfc<'
p9062
tp9063
Rp9064
ag1
(g5
S'\xff\x15\x10='
p9065
tp9066
Rp9067
ag1
(g5
S'b<\x82='
p9068
tp9069
Rp9070
ag1
(g5
S'Tc\x83='
p9071
tp9072
Rp9073
ag1
(g5
S'\xe4\xbd\x81='
p9074
tp9075
Rp9076
ag1
(g5
S'\xf5\xb3\x81='
p9077
tp9078
Rp9079
ag1
(g5
S'\xc0\x97\x83='
p9080
tp9081
Rp9082
ag1
(g5
S'Z\xe1~='
p9083
tp9084
Rp9085
ag1
(g5
S'\x08n\x82='
p9086
tp9087
Rp9088
ag1
(g5
S'&m\x83='
p9089
tp9090
Rp9091
ag1
(g5
S'Yr\x80='
p9092
tp9093
Rp9094
ag1
(g5
S'\x12\x1f~='
p9095
tp9096
Rp9097
ag1
(g5
S'q<~='
p9098
tp9099
Rp9100
ag1
(g5
S'\xcf~|='
p9101
tp9102
Rp9103
ag1
(g5
S'TLy='
p9104
tp9105
Rp9106
ag1
(g5
S'T@\x80='
p9107
tp9108
Rp9109
ag1
(g5
S'\xccs{='
p9110
tp9111
Rp9112
ag1
(g5
S'\x7f\xfa\x80='
p9113
tp9114
Rp9115
ag1
(g5
S'{fz='
p9116
tp9117
Rp9118
ag1
(g5
S'E\xb4\x7f='
p9119
tp9120
Rp9121
ag1
(g5
S'L\xd7t='
p9122
tp9123
Rp9124
ag1
(g5
S'8)\x80='
p9125
tp9126
Rp9127
ag1
(g5
S't\xc8\x99='
p9128
tp9129
Rp9130
ag1
(g5
S'\xa8\xc3\x9f='
p9131
tp9132
Rp9133
ag1
(g5
S'W\xf1\x9f='
p9134
tp9135
Rp9136
ag1
(g5
S'x\x93\x9f='
p9137
tp9138
Rp9139
ag1
(g5
S'\x88A\x9c='
p9140
tp9141
Rp9142
ag1
(g5
S'B\xfd\x9d='
p9143
tp9144
Rp9145
ag1
(g5
S'\xdcM\x97='
p9146
tp9147
Rp9148
ag1
(g5
S'@\xbd\x9c='
p9149
tp9150
Rp9151
ag1
(g5
S'\xc8\x1e\x9f='
p9152
tp9153
Rp9154
ag1
(g5
S'x\x1d\xa0='
p9155
tp9156
Rp9157
ag1
(g5
S'\x90\x1d\x9d='
p9158
tp9159
Rp9160
ag1
(g5
S'\xb4\xbf\x9a='
p9161
tp9162
Rp9163
ag1
(g5
S'\xf3\xdb\x9c='
p9164
tp9165
Rp9166
ag1
(g5
S'\xccb\x9f='
p9167
tp9168
Rp9169
ag1
(g5
S'f\xf7\x9a='
p9170
tp9171
Rp9172
ag1
(g5
S'>0\x9d='
p9173
tp9174
Rp9175
ag1
(g5
S'=\xb8\x9a='
p9176
tp9177
Rp9178
ag1
(g5
S'\xa3M\x9d='
p9179
tp9180
Rp9181
ag1
(g5
S'\x8f\x0f\x9e='
p9182
tp9183
Rp9184
ag1
(g5
S'\xc4\xcd\x9c='
p9185
tp9186
Rp9187
ag1
(g5
S'?_\x9e='
p9188
tp9189
Rp9190
ag1
(g5
S'\xfc\x00\x9c='
p9191
tp9192
Rp9193
ag1
(g5
S'\xceW\x9d='
p9194
tp9195
Rp9196
ag1
(g5
S'X\xec\xa1='
p9197
tp9198
Rp9199
ag1
(g5
S'`?\x9d='
p9200
tp9201
Rp9202
ag1
(g5
S' !\x99='
p9203
tp9204
Rp9205
ag1
(g5
S'L\xed\x9c='
p9206
tp9207
Rp9208
ag1
(g5
S':\xcd\x9b='
p9209
tp9210
Rp9211
ag1
(g5
S'\xb6\x17\x9d='
p9212
tp9213
Rp9214
ag1
(g5
S'\xd2U\x9a='
p9215
tp9216
Rp9217
ag1
(g5
S'*\xba\x96='
p9218
tp9219
Rp9220
ag1
(g5
S'\xee\xbd\x99='
p9221
tp9222
Rp9223
ag1
(g5
S'\xc2!\x98='
p9224
tp9225
Rp9226
ag1
(g5
S'\xd0\x0f\x93='
p9227
tp9228
Rp9229
ag1
(g5
S'"\x80\x97='
p9230
tp9231
Rp9232
ag1
(g5
S'\xd3\xc8\x96='
p9233
tp9234
Rp9235
ag1
(g5
S'D\xcb\x9a='
p9236
tp9237
Rp9238
ag1
(g5
S'p\xeb\x95='
p9239
tp9240
Rp9241
ag1
(g5
S'\xecL\x9a='
p9242
tp9243
Rp9244
ag1
(g5
S'\x92T\x97='
p9245
tp9246
Rp9247
ag1
(g5
S'\xa8.\x8f='
p9248
tp9249
Rp9250
ag1
(g5
S'\xb5\xa9\x8c='
p9251
tp9252
Rp9253
ag1
(g5
S'gj\x8c='
p9254
tp9255
Rp9256
ag1
(g5
S'\x06\xd5\x91='
p9257
tp9258
Rp9259
ag1
(g5
S'\x84\xdc\x88='
p9260
tp9261
Rp9262
ag1
(g5
S'\nI\x8f='
p9263
tp9264
Rp9265
ag1
(g5
S'Z\xc0\x8e='
p9266
tp9267
Rp9268
ag1
(g5
S'\xb4\x1e\x92='
p9269
tp9270
Rp9271
ag1
(g5
S'\\\xbc\x89='
p9272
tp9273
Rp9274
ag1
(g5
S'dw\x8e='
p9275
tp9276
Rp9277
ag1
(g5
S'\xfcs\x82='
p9278
tp9279
Rp9280
ag1
(g5
S'V\x8b\x85='
p9281
tp9282
Rp9283
ag1
(g5
S'\xc6\xe6\x84='
p9284
tp9285
Rp9286
ag1
(g5
S'\xae!\x88='
p9287
tp9288
Rp9289
ag1
(g5
S'\xc2\xaa\x87='
p9290
tp9291
Rp9292
ag1
(g5
S'\x12\xa9\x83='
p9293
tp9294
Rp9295
ag1
(g5
S'v\xb7\x87='
p9296
tp9297
Rp9298
ag1
(g5
S'DA\x84='
p9299
tp9300
Rp9301
ag1
(g5
S'h\xd2\x83='
p9302
tp9303
Rp9304
ag1
(g5
S')[\x86='
p9305
tp9306
Rp9307
ag1
(g5
S'\x18@(='
p9308
tp9309
Rp9310
ag1
(g5
S'f@7='
p9311
tp9312
Rp9313
ag1
(g5
S"*1'="
p9314
tp9315
Rp9316
ag1
(g5
S'\x81f$='
p9317
tp9318
Rp9319
ag1
(g5
S'\xcca6='
p9320
tp9321
Rp9322
ag1
(g5
S'q\x98)='
p9323
tp9324
Rp9325
ag1
(g5
S'\x10k2='
p9326
tp9327
Rp9328
ag1
(g5
S'\x91\x82,='
p9329
tp9330
Rp9331
ag1
(g5
S'2q8='
p9332
tp9333
Rp9334
ag1
(g5
S'\x06\x0c+='
p9335
tp9336
Rp9337
ag1
(g5
S'\xe88\x17='
p9338
tp9339
Rp9340
ag1
(g5
S'\xea\x9b\x08='
p9341
tp9342
Rp9343
ag1
(g5
S'\xbc\xc3\x12='
p9344
tp9345
Rp9346
ag1
(g5
S'p\xaa\x0b='
p9347
tp9348
Rp9349
ag1
(g5
S'\xfa|\x0c='
p9350
tp9351
Rp9352
ag1
(g5
S'\xd6\xe5\x0f='
p9353
tp9354
Rp9355
ag1
(g5
S'\x1c\xa1\r='
p9356
tp9357
Rp9358
ag1
(g5
S'\xa4&\x13='
p9359
tp9360
Rp9361
ag1
(g5
S'\xf4\xd3\x10='
p9362
tp9363
Rp9364
ag1
(g5
S'\x86\x05\x1b='
p9365
tp9366
Rp9367
ag1
(g5
S'\x91L\xbf<'
p9368
tp9369
Rp9370
ag1
(g5
S'\xfb\n\xcc<'
p9371
tp9372
Rp9373
ag1
(g5
S'\x87\x0c\xbf<'
p9374
tp9375
Rp9376
ag1
(g5
S'f\xf7\xbe<'
p9377
tp9378
Rp9379
ag1
(g5
S'\xea\x85\xbf<'
p9380
tp9381
Rp9382
ag1
(g5
S'F\xce\xc5<'
p9383
tp9384
Rp9385
ag1
(g5
S'\xa6,\xc0<'
p9386
tp9387
Rp9388
ag1
(g5
S'\\\xbc\xc3<'
p9389
tp9390
Rp9391
ag1
(g5
S'i.\xbe<'
p9392
tp9393
Rp9394
ag1
(g5
S'\x9fJ\xc3<'
p9395
tp9396
Rp9397
ag1
(g5
S'\xd4[,='
p9398
tp9399
Rp9400
ag1
(g5
S'\xd0w\x14='
p9401
tp9402
Rp9403
ag1
(g5
S'\xe7\xe5\x17='
p9404
tp9405
Rp9406
ag1
(g5
S'\xdc\x98\x1d='
p9407
tp9408
Rp9409
ag1
(g5
S'F\xe3#='
p9410
tp9411
Rp9412
ag1
(g5
S'n\xbf\x1b='
p9413
tp9414
Rp9415
ag1
(g5
S'\xecT%='
p9416
tp9417
Rp9418
ag1
(g5
S'\x1d\x9f\x11='
p9419
tp9420
Rp9421
ag1
(g5
S'X4\t='
p9422
tp9423
Rp9424
ag1
(g5
S'\xfc\xc7\x17='
p9425
tp9426
Rp9427
ag1
(g5
S'X\\\x80='
p9428
tp9429
Rp9430
ag1
(g5
S'\xe0\xbfz='
p9431
tp9432
Rp9433
ag1
(g5
S'\xa7\x04|='
p9434
tp9435
Rp9436
ag1
(g5
S'\xd1\xf1m='
p9437
tp9438
Rp9439
ag1
(g5
S'\xa3.\x81='
p9440
tp9441
Rp9442
ag1
(g5
S'4{t='
p9443
tp9444
Rp9445
ag1
(g5
S'M\xcfq='
p9446
tp9447
Rp9448
ag1
(g5
S'.6y='
p9449
tp9450
Rp9451
ag1
(g5
S'P\xcbs='
p9452
tp9453
Rp9454
ag1
(g5
S'8B~='
p9455
tp9456
Rp9457
ag1
(g5
S'\x00Cw='
p9458
tp9459
Rp9460
ag1
(g5
S'\xcc\xe1r='
p9461
tp9462
Rp9463
ag1
(g5
S'\xc2\xc2v='
p9464
tp9465
Rp9466
ag1
(g5
S'\xc6+x='
p9467
tp9468
Rp9469
ag1
(g5
S':,l='
p9470
tp9471
Rp9472
ag1
(g5
S'\x80\xc7|='
p9473
tp9474
Rp9475
ag1
(g5
S'\x85\xc8j='
p9476
tp9477
Rp9478
ag1
(g5
S'\\\x19\x80='
p9479
tp9480
Rp9481
ag1
(g5
S'8f~='
p9482
tp9483
Rp9484
ag1
(g5
S'ZO}='
p9485
tp9486
Rp9487
ag1
(g5
S'0Xy='
p9488
tp9489
Rp9490
ag1
(g5
S'\xcb\x92y='
p9491
tp9492
Rp9493
ag1
(g5
S'\xd4gz='
p9494
tp9495
Rp9496
ag1
(g5
S'\xce\x95v='
p9497
tp9498
Rp9499
ag1
(g5
S'\n\x04y='
p9500
tp9501
Rp9502
ag1
(g5
S'\xa5\x00\x7f='
p9503
tp9504
Rp9505
ag1
(g5
S'\x92\xd3\x80='
p9506
tp9507
Rp9508
ag1
(g5
S'\xcej|='
p9509
tp9510
Rp9511
ag1
(g5
S'\x16\x93w='
p9512
tp9513
Rp9514
ag1
(g5
S'\x17.\x81='
p9515
tp9516
Rp9517
ag1
(g5
S'njm='
p9518
tp9519
Rp9520
ag1
(g5
S'\xc8\xc0_='
p9521
tp9522
Rp9523
ag1
(g5
S'l\xa6h='
p9524
tp9525
Rp9526
ag1
(g5
S'\x94\xaea='
p9527
tp9528
Rp9529
ag1
(g5
S'\xf6Wu='
p9530
tp9531
Rp9532
ag1
(g5
S'T\x8da='
p9533
tp9534
Rp9535
ag1
(g5
S'\xcdHq='
p9536
tp9537
Rp9538
ag1
(g5
S'U\xcbn='
p9539
tp9540
Rp9541
ag1
(g5
S'\xf3\xa8Z='
p9542
tp9543
Rp9544
ag1
(g5
S',Ec='
p9545
tp9546
Rp9547
ag1
(g5
S'\xbaX^='
p9548
tp9549
Rp9550
ag1
(g5
S'l:o='
p9551
tp9552
Rp9553
ag1
(g5
S'\xf4\xdbm='
p9554
tp9555
Rp9556
ag1
(g5
S'3\xbc`='
p9557
tp9558
Rp9559
ag1
(g5
S'H/`='
p9560
tp9561
Rp9562
ag1
(g5
S'K\x13u='
p9563
tp9564
Rp9565
ag1
(g5
S'\xe7I]='
p9566
tp9567
Rp9568
ag1
(g5
S'\xe1\x0cl='
p9569
tp9570
Rp9571
ag1
(g5
S'w\x7f`='
p9572
tp9573
Rp9574
ag1
(g5
S'^\x8ai='
p9575
tp9576
Rp9577
ag1
(g5
S"\x8b'T="
p9578
tp9579
Rp9580
ag1
(g5
S'Hvt='
p9581
tp9582
Rp9583
ag1
(g5
S'f\x16j='
p9584
tp9585
Rp9586
ag1
(g5
S'd?f='
p9587
tp9588
Rp9589
ag1
(g5
S'\xfe\xba]='
p9590
tp9591
Rp9592
ag1
(g5
S'\xceKe='
p9593
tp9594
Rp9595
ag1
(g5
S'\x17-j='
p9596
tp9597
Rp9598
ag1
(g5
S'6\x8fX='
p9599
tp9600
Rp9601
ag1
(g5
S'\xa7\x1dZ='
p9602
tp9603
Rp9604
ag1
(g5
S'\x9f@d='
p9605
tp9606
Rp9607
ag1
(g5
S'\xb7\xd9W='
p9608
tp9609
Rp9610
ag1
(g5
S'5_R='
p9611
tp9612
Rp9613
ag1
(g5
S' \x03Z='
p9614
tp9615
Rp9616
ag1
(g5
S'\xb6i\\='
p9617
tp9618
Rp9619
ag1
(g5
S'\xe0@R='
p9620
tp9621
Rp9622
ag1
(g5
S'\xae[f='
p9623
tp9624
Rp9625
ag1
(g5
S'(\xa4U='
p9626
tp9627
Rp9628
ag1
(g5
S'\xb9^R='
p9629
tp9630
Rp9631
ag1
(g5
S'\xecBW='
p9632
tp9633
Rp9634
ag1
(g5
S'R~U='
p9635
tp9636
Rp9637
ag1
(g5
S'>\x0cL='
p9638
tp9639
Rp9640
ag1
(g5
S'Q\x81S='
p9641
tp9642
Rp9643
ag1
(g5
S'\xaf\xe1Q='
p9644
tp9645
Rp9646
ag1
(g5
S'\xc0\xa4O='
p9647
tp9648
Rp9649
ag1
(g5
S'n\xf4I='
p9650
tp9651
Rp9652
ag1
(g5
S'\xf2\xf1P='
p9653
tp9654
Rp9655
ag1
(g5
S'4QU='
p9656
tp9657
Rp9658
ag1
(g5
S'\xf4FX='
p9659
tp9660
Rp9661
ag1
(g5
S'\xfc\xdcT='
p9662
tp9663
Rp9664
ag1
(g5
S'a\xc6T='
p9665
tp9666
Rp9667
ag1
(g5
S'\xf0\xb4P='
p9668
tp9669
Rp9670
ag1
(g5
S'\x15\nK='
p9671
tp9672
Rp9673
ag1
(g5
S'r4J='
p9674
tp9675
Rp9676
ag1
(g5
S'\xac\xa3Z='
p9677
tp9678
Rp9679
ag1
(g5
S'F\xbfU='
p9680
tp9681
Rp9682
ag1
(g5
S'L\xcfb='
p9683
tp9684
Rp9685
ag1
(g5
S'\x07FN='
p9686
tp9687
Rp9688
ag1
(g5
S'\x9b\x9aY='
p9689
tp9690
Rp9691
ag1
(g5
S'\xdb7P='
p9692
tp9693
Rp9694
ag1
(g5
S'N\xf2]='
p9695
tp9696
Rp9697
ag1
(g5
S'I\x17V='
p9698
tp9699
Rp9700
ag1
(g5
S'\xc8JQ='
p9701
tp9702
Rp9703
ag1
(g5
S'\x1d\x8eK='
p9704
tp9705
Rp9706
ag1
(g5
S'\x95\x9fR='
p9707
tp9708
Rp9709
ag1
(g5
S'\x8f`Q='
p9710
tp9711
Rp9712
ag1
(g5
S'{\xc5V='
p9713
tp9714
Rp9715
ag1
(g5
S'\xf2\x80P='
p9716
tp9717
Rp9718
ag1
(g5
S'1\x9bM='
p9719
tp9720
Rp9721
ag1
(g5
S'\x0b\x92S='
p9722
tp9723
Rp9724
ag1
(g5
S'\x92qD='
p9725
tp9726
Rp9727
ag1
(g5
S'_\xf3U='
p9728
tp9729
Rp9730
ag1
(g5
S'^\tU='
p9731
tp9732
Rp9733
ag1
(g5
S"'nJ="
p9734
tp9735
Rp9736
ag1
(g5
S'F\xf4U='
p9737
tp9738
Rp9739
ag1
(g5
S'\x9a\x07U='
p9740
tp9741
Rp9742
ag1
(g5
S'\x9a\xd4N='
p9743
tp9744
Rp9745
ag1
(g5
S'^\xedL='
p9746
tp9747
Rp9748
ag1
(g5
S'\x8e\xbbM='
p9749
tp9750
Rp9751
ag1
(g5
S'\x99PW='
p9752
tp9753
Rp9754
ag1
(g5
S'\xbaNN='
p9755
tp9756
Rp9757
ag1
(g5
S'\x92\xe4I='
p9758
tp9759
Rp9760
ag1
(g5
S'bnN='
p9761
tp9762
Rp9763
ag1
(g5
S'E\xf3@='
p9764
tp9765
Rp9766
ag1
(g5
S'\xcb\xe8J='
p9767
tp9768
Rp9769
ag1
(g5
S'@\xf5P='
p9770
tp9771
Rp9772
ag1
(g5
S'\xe0\xd8K='
p9773
tp9774
Rp9775
ag1
(g5
S'\x0e\xd1P='
p9776
tp9777
Rp9778
ag1
(g5
S'*vO='
p9779
tp9780
Rp9781
ag1
(g5
S'\xec\\S='
p9782
tp9783
Rp9784
ag1
(g5
S'!tU='
p9785
tp9786
Rp9787
ag1
(g5
S'\x1f\x89L='
p9788
tp9789
Rp9790
ag1
(g5
S'\x02\xff>='
p9791
tp9792
Rp9793
ag1
(g5
S'\xa2\xd3H='
p9794
tp9795
Rp9796
ag1
(g5
S'|\x99H='
p9797
tp9798
Rp9799
ag1
(g5
S'\x9d\tP='
p9800
tp9801
Rp9802
ag1
(g5
S'L\x14C='
p9803
tp9804
Rp9805
ag1
(g5
S'\xac\xf2F='
p9806
tp9807
Rp9808
ag1
(g5
S'F-K='
p9809
tp9810
Rp9811
ag1
(g5
S'\x8e\xd6:='
p9812
tp9813
Rp9814
ag1
(g5
S'J\xafI='
p9815
tp9816
Rp9817
ag1
(g5
S'\x80qJ='
p9818
tp9819
Rp9820
ag1
(g5
S'\t\x96I='
p9821
tp9822
Rp9823
ag1
(g5
S'\xba\xb7@='
p9824
tp9825
Rp9826
ag1
(g5
S'V\xb7F='
p9827
tp9828
Rp9829
ag1
(g5
S'\x9aTL='
p9830
tp9831
Rp9832
ag1
(g5
S'wIF='
p9833
tp9834
Rp9835
ag1
(g5
S'6*T='
p9836
tp9837
Rp9838
ag1
(g5
S'\x7f\xdd>='
p9839
tp9840
Rp9841
ag1
(g5
S'\x04LH='
p9842
tp9843
Rp9844
ag1
(g5
S'\x90\x19<='
p9845
tp9846
Rp9847
ag1
(g5
S'\x90\xeaI='
p9848
tp9849
Rp9850
ag1
(g5
S'\x96+?='
p9851
tp9852
Rp9853
ag1
(g5
S'\x14\xb2P='
p9854
tp9855
Rp9856
ag1
(g5
S'\\\x9f@='
p9857
tp9858
Rp9859
ag1
(g5
S'_\xb2D='
p9860
tp9861
Rp9862
ag1
(g5
S'\x96xE='
p9863
tp9864
Rp9865
ag1
(g5
S'El:='
p9866
tp9867
Rp9868
ag1
(g5
S'\xd8\x85A='
p9869
tp9870
Rp9871
ag1
(g5
S'O\xe9X='
p9872
tp9873
Rp9874
ag1
(g5
S'\x88\x1e?='
p9875
tp9876
Rp9877
ag1
(g5
S'\xc0\xc3Q='
p9878
tp9879
Rp9880
ag1
(g5
S'\x80Z>='
p9881
tp9882
Rp9883
ag1
(g5
S'i_E='
p9884
tp9885
Rp9886
ag1
(g5
S'\x94"F='
p9887
tp9888
Rp9889
ag1
(g5
S'\x8b\xa08='
p9890
tp9891
Rp9892
ag1
(g5
S't\xd1D='
p9893
tp9894
Rp9895
ag1
(g5
S'\xf7\xeaM='
p9896
tp9897
Rp9898
ag1
(g5
S'\x84^D='
p9899
tp9900
Rp9901
ag1
(g5
S'\x13\xbf?='
p9902
tp9903
Rp9904
ag1
(g5
S'\xa3\x12C='
p9905
tp9906
Rp9907
ag1
(g5
S'\xf0+D='
p9908
tp9909
Rp9910
ag1
(g5
S'\xd4\x8eA='
p9911
tp9912
Rp9913
ag1
(g5
S'\xb8\xedD='
p9914
tp9915
Rp9916
ag1
(g5
S'l$A='
p9917
tp9918
Rp9919
ag1
(g5
S'\x94\x99H='
p9920
tp9921
Rp9922
ag1
(g5
S'n4I='
p9923
tp9924
Rp9925
ag1
(g5
S'\x18bD='
p9926
tp9927
Rp9928
ag1
(g5
S'\x14\x97D='
p9929
tp9930
Rp9931
ag1
(g5
S'1\xf0;='
p9932
tp9933
Rp9934
ag1
(g5
S'x\xd16='
p9935
tp9936
Rp9937
ag1
(g5
S'\x9eVD='
p9938
tp9939
Rp9940
ag1
(g5
S'0yL='
p9941
tp9942
Rp9943
ag1
(g5
S'<@B='
p9944
tp9945
Rp9946
ag1
(g5
S'\xa4\xf7D='
p9947
tp9948
Rp9949
ag1
(g5
S'\xfcIB='
p9950
tp9951
Rp9952
ag1
(g5
S'\xe2\xa2B='
p9953
tp9954
Rp9955
ag1
(g5
S'\xad\xc2K='
p9956
tp9957
Rp9958
ag1
(g5
S'3\x96D='
p9959
tp9960
Rp9961
ag1
(g5
S'CgL='
p9962
tp9963
Rp9964
ag1
(g5
S'\xbe,J='
p9965
tp9966
Rp9967
ag1
(g5
S'\xac\xa7H='
p9968
tp9969
Rp9970
ag1
(g5
S'`fD='
p9971
tp9972
Rp9973
ag1
(g5
S'V1W='
p9974
tp9975
Rp9976
ag1
(g5
S'\x94\x8fX='
p9977
tp9978
Rp9979
ag1
(g5
S'\xe4\x91M='
p9980
tp9981
Rp9982
ag1
(g5
S'\xcaHJ='
p9983
tp9984
Rp9985
ag1
(g5
S'\x08\xfaQ='
p9986
tp9987
Rp9988
ag1
(g5
S'\xc6\x9cE='
p9989
tp9990
Rp9991
ag1
(g5
S'\r\x82_='
p9992
tp9993
Rp9994
ag1
(g5
S'TLI='
p9995
tp9996
Rp9997
ag1
(g5
S'\xc2\xadM='
p9998
tp9999
Rp10000
ag1
(g5
S'@\x93N='
p10001
tp10002
Rp10003
ag1
(g5
S'\x85\xc0Q='
p10004
tp10005
Rp10006
ag1
(g5
S'7YE='
p10007
tp10008
Rp10009
ag1
(g5
S'b\xcaL='
p10010
tp10011
Rp10012
ag1
(g5
S'\xd8\x1cK='
p10013
tp10014
Rp10015
ag1
(g5
S'\x91\x86W='
p10016
tp10017
Rp10018
ag1
(g5
S'\xc2\xc4L='
p10019
tp10020
Rp10021
ag1
(g5
S'\xda\x10P='
p10022
tp10023
Rp10024
ag1
(g5
S'\xe9\xabU='
p10025
tp10026
Rp10027
ag1
(g5
S'P\xaaJ='
p10028
tp10029
Rp10030
ag1
(g5
S'F^@='
p10031
tp10032
Rp10033
ag1
(g5
S'\xbe98='
p10034
tp10035
Rp10036
ag1
(g5
S'\x0bkK='
p10037
tp10038
Rp10039
ag1
(g5
S'\x1c1F='
p10040
tp10041
Rp10042
ag1
(g5
S'\x81\x89F='
p10043
tp10044
Rp10045
ag1
(g5
S',\xdaF='
p10046
tp10047
Rp10048
ag1
(g5
S'nc>='
p10049
tp10050
Rp10051
ag1
(g5
S'\x1c-=='
p10052
tp10053
Rp10054
ag1
(g5
S'c\xa3?='
p10055
tp10056
Rp10057
ag1
(g5
S'o\xf9<='
p10058
tp10059
Rp10060
ag1
(g5
S'L\rA='
p10061
tp10062
Rp10063
ag1
(g5
S'f&D='
p10064
tp10065
Rp10066
ag1
(g5
S'\x069?='
p10067
tp10068
Rp10069
ag1
(g5
S' ,D='
p10070
tp10071
Rp10072
ag1
(g5
S'L\x84:='
p10073
tp10074
Rp10075
ag1
(g5
S';\x12<='
p10076
tp10077
Rp10078
ag1
(g5
S'\x0bSD='
p10079
tp10080
Rp10081
ag1
(g5
S'\xc2\x87F='
p10082
tp10083
Rp10084
ag1
(g5
S'T]C='
p10085
tp10086
Rp10087
ag1
(g5
S'\xf2?:='
p10088
tp10089
Rp10090
ag1
(g5
S'\xa7\x1dA='
p10091
tp10092
Rp10093
ag1
(g5
S'\xf6\xf5<='
p10094
tp10095
Rp10096
ag1
(g5
S'\x91\x9dF='
p10097
tp10098
Rp10099
ag1
(g5
S'+@A='
p10100
tp10101
Rp10102
ag1
(g5
S'p/@='
p10103
tp10104
Rp10105
ag1
(g5
S'j\xc0F='
p10106
tp10107
Rp10108
ag1
(g5
S'r\xedB='
p10109
tp10110
Rp10111
ag1
(g5
S'\xf5\x95E='
p10112
tp10113
Rp10114
ag1
(g5
S'D\xf2>='
p10115
tp10116
Rp10117
ag1
(g5
S'>\r1='
p10118
tp10119
Rp10120
ag1
(g5
S'\xc5\xdcE='
p10121
tp10122
Rp10123
ag1
(g5
S'H\xb86='
p10124
tp10125
Rp10126
ag1
(g5
S'\xf6h?='
p10127
tp10128
Rp10129
ag1
(g5
S'<i9='
p10130
tp10131
Rp10132
ag1
(g5
S'\xa8\xdf1='
p10133
tp10134
Rp10135
ag1
(g5
S't\x027='
p10136
tp10137
Rp10138
ag1
(g5
S'\xee\x10@='
p10139
tp10140
Rp10141
ag1
(g5
S'\x19\x89=='
p10142
tp10143
Rp10144
ag1
(g5
S'y\x918='
p10145
tp10146
Rp10147
ag1
(g5
S'\xfa\xbf:='
p10148
tp10149
Rp10150
ag1
(g5
S'\xe4*;='
p10151
tp10152
Rp10153
ag1
(g5
S'Z\xf6:='
p10154
tp10155
Rp10156
ag1
(g5
S'on;='
p10157
tp10158
Rp10159
ag1
(g5
S'\x9a4<='
p10160
tp10161
Rp10162
ag1
(g5
S'\x82\xddB='
p10163
tp10164
Rp10165
ag1
(g5
S'\xac\xb79='
p10166
tp10167
Rp10168
ag1
(g5
S'\xaa\x9e6='
p10169
tp10170
Rp10171
ag1
(g5
S'\x9a\xc9=='
p10172
tp10173
Rp10174
ag1
(g5
S'\x9c\x7f8='
p10175
tp10176
Rp10177
ag1
(g5
S'\xcc\x86\x93='
p10178
tp10179
Rp10180
ag1
(g5
S'l\xae\x96='
p10181
tp10182
Rp10183
ag1
(g5
S'*3\x94='
p10184
tp10185
Rp10186
ag1
(g5
S'v\xb0\x94='
p10187
tp10188
Rp10189
ag1
(g5
S'"\x9a\x8f='
p10190
tp10191
Rp10192
ag1
(g5
S'oT\x9a='
p10193
tp10194
Rp10195
ag1
(g5
S'\xf01\x98='
p10196
tp10197
Rp10198
ag1
(g5
S'1M\x98='
p10199
tp10200
Rp10201
ag1
(g5
S'\x85\n\x93='
p10202
tp10203
Rp10204
ag1
(g5
S'\xb4I\x95='
p10205
tp10206
Rp10207
ag1
(g5
S'V\x99\x97='
p10208
tp10209
Rp10210
ag1
(g5
S'\x1a\xdc\x99='
p10211
tp10212
Rp10213
ag1
(g5
S',\xb2\x9b='
p10214
tp10215
Rp10216
ag1
(g5
S'\xa4*\x9c='
p10217
tp10218
Rp10219
ag1
(g5
S'Mk\x99='
p10220
tp10221
Rp10222
ag1
(g5
S'z\xa6\x97='
p10223
tp10224
Rp10225
ag1
(g5
S'Y\x9e\x9d='
p10226
tp10227
Rp10228
ag1
(g5
S',\xb8\x98='
p10229
tp10230
Rp10231
ag1
(g5
S'\xd7\xac\x9d='
p10232
tp10233
Rp10234
ag1
(g5
S'\xd7\xd6\x9e='
p10235
tp10236
Rp10237
ag1
(g5
S'\xef\xb3 ='
p10238
tp10239
Rp10240
ag1
(g5
S'\x83E,='
p10241
tp10242
Rp10243
ag1
(g5
S'n\xee-='
p10244
tp10245
Rp10246
ag1
(g5
S'D\xdd0='
p10247
tp10248
Rp10249
ag1
(g5
S'\xcd\xdb$='
p10250
tp10251
Rp10252
ag1
(g5
S'\xfeQ&='
p10253
tp10254
Rp10255
ag1
(g5
S'_\x9a%='
p10256
tp10257
Rp10258
ag1
(g5
S'\x1cc!='
p10259
tp10260
Rp10261
ag1
(g5
S'\x02i$='
p10262
tp10263
Rp10264
ag1
(g5
S'\xeer/='
p10265
tp10266
Rp10267
ag1
(g5
S'\x9ci\xdc<'
p10268
tp10269
Rp10270
ag1
(g5
S'T\x9d\xd6<'
p10271
tp10272
Rp10273
ag1
(g5
S'\xccS\xd4<'
p10274
tp10275
Rp10276
ag1
(g5
S'\x086\xd1<'
p10277
tp10278
Rp10279
ag1
(g5
S'\xe6\xd9\xd1<'
p10280
tp10281
Rp10282
ag1
(g5
S'2F\xd5<'
p10283
tp10284
Rp10285
ag1
(g5
S' \x98\xdf<'
p10286
tp10287
Rp10288
ag1
(g5
S'\t\x92\xdc<'
p10289
tp10290
Rp10291
ag1
(g5
S'\xc3\x8d\xd2<'
p10292
tp10293
Rp10294
ag1
(g5
S'\n%\xd3<'
p10295
tp10296
Rp10297
ag1
(g5
S'\xb0\xe0=='
p10298
tp10299
Rp10300
ag1
(g5
S'\xa2\xd8>='
p10301
tp10302
Rp10303
ag1
(g5
S'\x0cN9='
p10304
tp10305
Rp10306
ag1
(g5
S'<M=='
p10307
tp10308
Rp10309
ag1
(g5
S'\x9dTB='
p10310
tp10311
Rp10312
ag1
(g5
S'Z\xfc0='
p10313
tp10314
Rp10315
ag1
(g5
S'.\x8d+='
p10316
tp10317
Rp10318
ag1
(g5
S'\xed\x015='
p10319
tp10320
Rp10321
ag1
(g5
S'\xdc\xd4E='
p10322
tp10323
Rp10324
ag1
(g5
S'=\x86A='
p10325
tp10326
Rp10327
ag1
(g5
S'_8v='
p10328
tp10329
Rp10330
ag1
(g5
S'NNx='
p10331
tp10332
Rp10333
ag1
(g5
S'\x91^s='
p10334
tp10335
Rp10336
ag1
(g5
S'\xf3\x14s='
p10337
tp10338
Rp10339
ag1
(g5
S'\x13\xb2y='
p10340
tp10341
Rp10342
ag1
(g5
S'\xd4Hq='
p10343
tp10344
Rp10345
ag1
(g5
S'\x86\x98y='
p10346
tp10347
Rp10348
ag1
(g5
S'\xf0\x01v='
p10349
tp10350
Rp10351
ag1
(g5
S'R[u='
p10352
tp10353
Rp10354
ag1
(g5
S'\xf1\xcbl='
p10355
tp10356
Rp10357
ag1
(g5
S'-ur='
p10358
tp10359
Rp10360
ag1
(g5
S'\xfcuq='
p10361
tp10362
Rp10363
ag1
(g5
S']<q='
p10364
tp10365
Rp10366
ag1
(g5
S'@\x16l='
p10367
tp10368
Rp10369
ag1
(g5
S'\xa6\xbdq='
p10370
tp10371
Rp10372
ag1
(g5
S'i\x8fq='
p10373
tp10374
Rp10375
ag1
(g5
S'r\x86v='
p10376
tp10377
Rp10378
ag1
(g5
S'\x18\xe9u='
p10379
tp10380
Rp10381
ag1
(g5
S'x\nq='
p10382
tp10383
Rp10384
ag1
(g5
S'\xf5\\q='
p10385
tp10386
Rp10387
ag1
(g5
S'd~h='
p10388
tp10389
Rp10390
ag1
(g5
S'\xe1aZ='
p10391
tp10392
Rp10393
ag1
(g5
S'&ie='
p10394
tp10395
Rp10396
ag1
(g5
S'\xe4\xdfb='
p10397
tp10398
Rp10399
ag1
(g5
S'0[d='
p10400
tp10401
Rp10402
ag1
(g5
S'\n9i='
p10403
tp10404
Rp10405
ag1
(g5
S'\xe8\xddi='
p10406
tp10407
Rp10408
ag1
(g5
S'\x0e\xbfq='
p10409
tp10410
Rp10411
ag1
(g5
S'|\xe2a='
p10412
tp10413
Rp10414
ag1
(g5
S'\x88\x17f='
p10415
tp10416
Rp10417
ag1
(g5
S'\x0c\xa2m='
p10418
tp10419
Rp10420
ag1
(g5
S'8\xee`='
p10421
tp10422
Rp10423
ag1
(g5
S'o\xd0i='
p10424
tp10425
Rp10426
ag1
(g5
S'\x0ebi='
p10427
tp10428
Rp10429
ag1
(g5
S'\xc8\xd0p='
p10430
tp10431
Rp10432
ag1
(g5
S'8\xa5g='
p10433
tp10434
Rp10435
ag1
(g5
S',\xaeo='
p10436
tp10437
Rp10438
ag1
(g5
S'\x88[k='
p10439
tp10440
Rp10441
ag1
(g5
S'\xe4\xa0f='
p10442
tp10443
Rp10444
ag1
(g5
S'\xe8Ck='
p10445
tp10446
Rp10447
ag1
(g5
S',\x93i='
p10448
tp10449
Rp10450
ag1
(g5
S'\xde\x9aj='
p10451
tp10452
Rp10453
ag1
(g5
S'>\xb2o='
p10454
tp10455
Rp10456
ag1
(g5
S'\x829r='
p10457
tp10458
Rp10459
ag1
(g5
S'u\x80e='
p10460
tp10461
Rp10462
ag1
(g5
S'_\x92d='
p10463
tp10464
Rp10465
ag1
(g5
S'\xdc\xc1j='
p10466
tp10467
Rp10468
ag1
(g5
S'T\x06k='
p10469
tp10470
Rp10471
ag1
(g5
S'\xb6co='
p10472
tp10473
Rp10474
ag1
(g5
S'E\xc8e='
p10475
tp10476
Rp10477
ag1
(g5
S'F\xcdo='
p10478
tp10479
Rp10480
ag1
(g5
S'f\xc7r='
p10481
tp10482
Rp10483
ag1
(g5
S'\x1a\xf9o='
p10484
tp10485
Rp10486
ag1
(g5
S'P\xabf='
p10487
tp10488
Rp10489
ag1
(g5
S'\xb3\x9cp='
p10490
tp10491
Rp10492
ag1
(g5
S'4Gm='
p10493
tp10494
Rp10495
ag1
(g5
S'F\x7fh='
p10496
tp10497
Rp10498
ag1
(g5
S'L\xf0h='
p10499
tp10500
Rp10501
ag1
(g5
S'\xa6\nr='
p10502
tp10503
Rp10504
ag1
(g5
S'\x0e\x97l='
p10505
tp10506
Rp10507
ag1
(g5
S'X\xeeh='
p10508
tp10509
Rp10510
ag1
(g5
S'\xc3\xa9f='
p10511
tp10512
Rp10513
ag1
(g5
S'\x05\x10i='
p10514
tp10515
Rp10516
ag1
(g5
S'p#j='
p10517
tp10518
Rp10519
ag1
(g5
S'J\xd4c='
p10520
tp10521
Rp10522
ag1
(g5
S'\xba\xa4g='
p10523
tp10524
Rp10525
ag1
(g5
S'\xdaag='
p10526
tp10527
Rp10528
ag1
(g5
S':\x0be='
p10529
tp10530
Rp10531
ag1
(g5
S'\xbc0b='
p10532
tp10533
Rp10534
ag1
(g5
S'z&c='
p10535
tp10536
Rp10537
ag1
(g5
S'\xca`[='
p10538
tp10539
Rp10540
ag1
(g5
S'\xacL[='
p10541
tp10542
Rp10543
ag1
(g5
S'\xd1\x93^='
p10544
tp10545
Rp10546
ag1
(g5
S'X\rb='
p10547
tp10548
Rp10549
ag1
(g5
S'8\x96X='
p10550
tp10551
Rp10552
ag1
(g5
S'\xf6\xa6b='
p10553
tp10554
Rp10555
ag1
(g5
S'\xbc\xa5\\='
p10556
tp10557
Rp10558
ag1
(g5
S'\x16KR='
p10559
tp10560
Rp10561
ag1
(g5
S'McY='
p10562
tp10563
Rp10564
ag1
(g5
S'\x8a\x12\\='
p10565
tp10566
Rp10567
ag1
(g5
S'\x96bX='
p10568
tp10569
Rp10570
ag1
(g5
S'\x98\xf3^='
p10571
tp10572
Rp10573
ag1
(g5
S'\x9e7Y='
p10574
tp10575
Rp10576
ag1
(g5
S'\xc0\xd2i='
p10577
tp10578
Rp10579
ag1
(g5
S'\xf5\xf7W='
p10580
tp10581
Rp10582
ag1
(g5
S'\x8a\xb4b='
p10583
tp10584
Rp10585
ag1
(g5
S'\xd2vd='
p10586
tp10587
Rp10588
ag1
(g5
S'\xa7$i='
p10589
tp10590
Rp10591
ag1
(g5
S'hPW='
p10592
tp10593
Rp10594
ag1
(g5
S'&da='
p10595
tp10596
Rp10597
ag1
(g5
S'`~U='
p10598
tp10599
Rp10600
ag1
(g5
S'\xfaFT='
p10601
tp10602
Rp10603
ag1
(g5
S'\xad\x19\\='
p10604
tp10605
Rp10606
ag1
(g5
S'\xe4<i='
p10607
tp10608
Rp10609
ag1
(g5
S'4h[='
p10610
tp10611
Rp10612
ag1
(g5
S'8\xbfV='
p10613
tp10614
Rp10615
ag1
(g5
S'\x92\x90^='
p10616
tp10617
Rp10618
ag1
(g5
S'\x88\xccb='
p10619
tp10620
Rp10621
ag1
(g5
S'\xb5@V='
p10622
tp10623
Rp10624
ag1
(g5
S'L\xf8Z='
p10625
tp10626
Rp10627
ag1
(g5
S'\xaePZ='
p10628
tp10629
Rp10630
ag1
(g5
S'M\x1bY='
p10631
tp10632
Rp10633
ag1
(g5
S'\xe4L[='
p10634
tp10635
Rp10636
ag1
(g5
S'!1`='
p10637
tp10638
Rp10639
ag1
(g5
S'^\xfcX='
p10640
tp10641
Rp10642
ag1
(g5
S'+\x16d='
p10643
tp10644
Rp10645
ag1
(g5
S'4\x83^='
p10646
tp10647
Rp10648
ag1
(g5
S',X]='
p10649
tp10650
Rp10651
ag1
(g5
S'\xe8\xbda='
p10652
tp10653
Rp10654
ag1
(g5
S'pSb='
p10655
tp10656
Rp10657
ag1
(g5
S'y\x08Q='
p10658
tp10659
Rp10660
ag1
(g5
S'*`]='
p10661
tp10662
Rp10663
ag1
(g5
S'\xf1\x8e_='
p10664
tp10665
Rp10666
ag1
(g5
S',\xafW='
p10667
tp10668
Rp10669
ag1
(g5
S'\xf4\xb0K='
p10670
tp10671
Rp10672
ag1
(g5
S'\x1alV='
p10673
tp10674
Rp10675
ag1
(g5
S'\x02\x13d='
p10676
tp10677
Rp10678
ag1
(g5
S'P\xe0U='
p10679
tp10680
Rp10681
ag1
(g5
S'}MT='
p10682
tp10683
Rp10684
ag1
(g5
S'\x06@H='
p10685
tp10686
Rp10687
ag1
(g5
S'\xe4/F='
p10688
tp10689
Rp10690
ag1
(g5
S'\xe2\xb6B='
p10691
tp10692
Rp10693
ag1
(g5
S'\xbc\x02`='
p10694
tp10695
Rp10696
ag1
(g5
S'\xa7!R='
p10697
tp10698
Rp10699
ag1
(g5
S'FGG='
p10700
tp10701
Rp10702
ag1
(g5
S'\xc9\x07Q='
p10703
tp10704
Rp10705
ag1
(g5
S'F*U='
p10706
tp10707
Rp10708
ag1
(g5
S'fwN='
p10709
tp10710
Rp10711
ag1
(g5
S'\x80uT='
p10712
tp10713
Rp10714
ag1
(g5
S'\xc6\xa9C='
p10715
tp10716
Rp10717
ag1
(g5
S'\xe0:X='
p10718
tp10719
Rp10720
ag1
(g5
S'\x82m]='
p10721
tp10722
Rp10723
ag1
(g5
S'\xa2\xadQ='
p10724
tp10725
Rp10726
ag1
(g5
S'\n\xe4K='
p10727
tp10728
Rp10729
ag1
(g5
S'C\xb1P='
p10730
tp10731
Rp10732
ag1
(g5
S'\x0egF='
p10733
tp10734
Rp10735
ag1
(g5
S'\xa02[='
p10736
tp10737
Rp10738
ag1
(g5
S'r\xa7L='
p10739
tp10740
Rp10741
ag1
(g5
S'\xe0\xfeY='
p10742
tp10743
Rp10744
ag1
(g5
S'\xb3\xeeN='
p10745
tp10746
Rp10747
ag1
(g5
S'\xfc\x0bD='
p10748
tp10749
Rp10750
ag1
(g5
S'\x8fBN='
p10751
tp10752
Rp10753
ag1
(g5
S'\r)M='
p10754
tp10755
Rp10756
ag1
(g5
S'\x9f\xa3K='
p10757
tp10758
Rp10759
ag1
(g5
S'T\xf0S='
p10760
tp10761
Rp10762
ag1
(g5
S'R\xadU='
p10763
tp10764
Rp10765
ag1
(g5
S'\x80VI='
p10766
tp10767
Rp10768
ag1
(g5
S'\x9c\xe8I='
p10769
tp10770
Rp10771
ag1
(g5
S' \x0cT='
p10772
tp10773
Rp10774
ag1
(g5
S'\xc3%S='
p10775
tp10776
Rp10777
ag1
(g5
S'\xc8\xa2R='
p10778
tp10779
Rp10780
ag1
(g5
S"'vI="
p10781
tp10782
Rp10783
ag1
(g5
S'.(P='
p10784
tp10785
Rp10786
ag1
(g5
S'F\xe4H='
p10787
tp10788
Rp10789
ag1
(g5
S'\x86\x82A='
p10790
tp10791
Rp10792
ag1
(g5
S'\xfaeN='
p10793
tp10794
Rp10795
ag1
(g5
S'\xfe\x83O='
p10796
tp10797
Rp10798
ag1
(g5
S'\xcb\x1aP='
p10799
tp10800
Rp10801
ag1
(g5
S'&\xa0S='
p10802
tp10803
Rp10804
ag1
(g5
S'\xa2\xeaF='
p10805
tp10806
Rp10807
ag1
(g5
S'tWX='
p10808
tp10809
Rp10810
ag1
(g5
S'\x8a:Z='
p10811
tp10812
Rp10813
ag1
(g5
S'\xaaZP='
p10814
tp10815
Rp10816
ag1
(g5
S'\x807Y='
p10817
tp10818
Rp10819
ag1
(g5
S'\x12|e='
p10820
tp10821
Rp10822
ag1
(g5
S'\xd7DM='
p10823
tp10824
Rp10825
ag1
(g5
S'\xe6\x92K='
p10826
tp10827
Rp10828
ag1
(g5
S'\xa2rP='
p10829
tp10830
Rp10831
ag1
(g5
S'\x80\x02U='
p10832
tp10833
Rp10834
ag1
(g5
S'\xfe\x84O='
p10835
tp10836
Rp10837
ag1
(g5
S'C\xd0J='
p10838
tp10839
Rp10840
ag1
(g5
S'+\xacI='
p10841
tp10842
Rp10843
ag1
(g5
S'\xb0\xcfS='
p10844
tp10845
Rp10846
ag1
(g5
S'\x17\xb2I='
p10847
tp10848
Rp10849
ag1
(g5
S'^\xa8O='
p10850
tp10851
Rp10852
ag1
(g5
S'\xd4\x06M='
p10853
tp10854
Rp10855
ag1
(g5
S'\xe6\xd3C='
p10856
tp10857
Rp10858
ag1
(g5
S'\xb0zR='
p10859
tp10860
Rp10861
ag1
(g5
S'\x90NK='
p10862
tp10863
Rp10864
ag1
(g5
S'\xbdWO='
p10865
tp10866
Rp10867
ag1
(g5
S'TGN='
p10868
tp10869
Rp10870
ag1
(g5
S'M\xecI='
p10871
tp10872
Rp10873
ag1
(g5
S'z\xcfQ='
p10874
tp10875
Rp10876
ag1
(g5
S'\xd2\xd6I='
p10877
tp10878
Rp10879
ag1
(g5
S'|\xc3M='
p10880
tp10881
Rp10882
ag1
(g5
S'\x82\xb0R='
p10883
tp10884
Rp10885
ag1
(g5
S'V\x86T='
p10886
tp10887
Rp10888
ag1
(g5
S'<\x8cF='
p10889
tp10890
Rp10891
ag1
(g5
S'\xe9bT='
p10892
tp10893
Rp10894
ag1
(g5
S')FP='
p10895
tp10896
Rp10897
ag1
(g5
S'\x02\xb2@='
p10898
tp10899
Rp10900
ag1
(g5
S'\xbe.E='
p10901
tp10902
Rp10903
ag1
(g5
S'm\x92M='
p10904
tp10905
Rp10906
ag1
(g5
S'\xfc\xe6F='
p10907
tp10908
Rp10909
ag1
(g5
S'\xfcW@='
p10910
tp10911
Rp10912
ag1
(g5
S'\x8a\x99H='
p10913
tp10914
Rp10915
ag1
(g5
S'\\\xcdB='
p10916
tp10917
Rp10918
ag1
(g5
S'\x82XH='
p10919
tp10920
Rp10921
ag1
(g5
S'd\xafK='
p10922
tp10923
Rp10924
ag1
(g5
S'\x14|7='
p10925
tp10926
Rp10927
ag1
(g5
S'\x98\xb5C='
p10928
tp10929
Rp10930
ag1
(g5
S'R7>='
p10931
tp10932
Rp10933
ag1
(g5
S't\xa4;='
p10934
tp10935
Rp10936
ag1
(g5
S'\x15\xa1A='
p10937
tp10938
Rp10939
ag1
(g5
S'lNG='
p10940
tp10941
Rp10942
ag1
(g5
S'b\x05>='
p10943
tp10944
Rp10945
ag1
(g5
S'l\xac?='
p10946
tp10947
Rp10948
ag1
(g5
S'\x90\x97?='
p10949
tp10950
Rp10951
ag1
(g5
S'\x95\xefB='
p10952
tp10953
Rp10954
ag1
(g5
S'\x02\x8d@='
p10955
tp10956
Rp10957
ag1
(g5
S'\xb0^E='
p10958
tp10959
Rp10960
ag1
(g5
S'0nI='
p10961
tp10962
Rp10963
ag1
(g5
S'J\xe9?='
p10964
tp10965
Rp10966
ag1
(g5
S'\x16\xa5H='
p10967
tp10968
Rp10969
ag1
(g5
S'N\xcc=='
p10970
tp10971
Rp10972
ag1
(g5
S')HN='
p10973
tp10974
Rp10975
ag1
(g5
S'\xb0TK='
p10976
tp10977
Rp10978
ag1
(g5
S'\xbc\xa3F='
p10979
tp10980
Rp10981
ag1
(g5
S'\xe9\x16A='
p10982
tp10983
Rp10984
ag1
(g5
S'h\xfaA='
p10985
tp10986
Rp10987
ag1
(g5
S'\x86rV='
p10988
tp10989
Rp10990
ag1
(g5
S'P8G='
p10991
tp10992
Rp10993
ag1
(g5
S'\x12\xa2T='
p10994
tp10995
Rp10996
ag1
(g5
S'b\x17Z='
p10997
tp10998
Rp10999
ag1
(g5
S'\xed\x07Y='
p11000
tp11001
Rp11002
ag1
(g5
S'\xc4\x96S='
p11003
tp11004
Rp11005
ag1
(g5
S'\xbd\xf2X='
p11006
tp11007
Rp11008
ag1
(g5
S't\xe9V='
p11009
tp11010
Rp11011
ag1
(g5
S'\x00cS='
p11012
tp11013
Rp11014
ag1
(g5
S'\xac\xf8L='
p11015
tp11016
Rp11017
ag1
(g5
S'\xfc\xe9I='
p11018
tp11019
Rp11020
ag1
(g5
S'\x04!P='
p11021
tp11022
Rp11023
ag1
(g5
S'\xc9\xb2Z='
p11024
tp11025
Rp11026
ag1
(g5
S'\x87\x0eR='
p11027
tp11028
Rp11029
ag1
(g5
S']\xddQ='
p11030
tp11031
Rp11032
ag1
(g5
S'\x0c{^='
p11033
tp11034
Rp11035
ag1
(g5
S'\x80\x13W='
p11036
tp11037
Rp11038
ag1
(g5
S' W[='
p11039
tp11040
Rp11041
ag1
(g5
S'<cV='
p11042
tp11043
Rp11044
ag1
(g5
S'\xc9\x01P='
p11045
tp11046
Rp11047
ag1
(g5
S'\x1a=B='
p11048
tp11049
Rp11050
ag1
(g5
S'\xd7S2='
p11051
tp11052
Rp11053
ag1
(g5
S'\xb2\xb8C='
p11054
tp11055
Rp11056
ag1
(g5
S'\\\xe2>='
p11057
tp11058
Rp11059
ag1
(g5
S'\x99eA='
p11060
tp11061
Rp11062
ag1
(g5
S'\xc0\x91E='
p11063
tp11064
Rp11065
ag1
(g5
S'\xc1F9='
p11066
tp11067
Rp11068
ag1
(g5
S'\xf3\x1e9='
p11069
tp11070
Rp11071
ag1
(g5
S'\x16[7='
p11072
tp11073
Rp11074
ag1
(g5
S'\xf9\xd9=='
p11075
tp11076
Rp11077
ag1
(g5
S'\x02\x1b\x92='
p11078
tp11079
Rp11080
ag1
(g5
S':\t\x91='
p11081
tp11082
Rp11083
ag1
(g5
S'Z\xde\x91='
p11084
tp11085
Rp11086
ag1
(g5
S'\xad\xac\x8d='
p11087
tp11088
Rp11089
ag1
(g5
S'R\xd0\x92='
p11090
tp11091
Rp11092
ag1
(g5
S'k\n\x92='
p11093
tp11094
Rp11095
ag1
(g5
S'\x9e/\x91='
p11096
tp11097
Rp11098
ag1
(g5
S'Dh\x8b='
p11099
tp11100
Rp11101
ag1
(g5
S'D\xda\x91='
p11102
tp11103
Rp11104
ag1
(g5
S'\xce_\x92='
p11105
tp11106
Rp11107
ag1
(g5
S'L"\x7f='
p11108
tp11109
Rp11110
ag1
(g5
S'\xd6\xa9|='
p11111
tp11112
Rp11113
ag1
(g5
S'\xf7\xcb\x86='
p11114
tp11115
Rp11116
ag1
(g5
S'x\x9dv='
p11117
tp11118
Rp11119
ag1
(g5
S'\xae\xe7}='
p11120
tp11121
Rp11122
ag1
(g5
S'd\xa5\x85='
p11123
tp11124
Rp11125
ag1
(g5
S'n\xaa\x83='
p11126
tp11127
Rp11128
ag1
(g5
S'\xff\x91\x82='
p11129
tp11130
Rp11131
ag1
(g5
S'\x98\xc0|='
p11132
tp11133
Rp11134
ag1
(g5
S'd\xb1}='
p11135
tp11136
Rp11137
ag1
(g5
S'\x80\nb='
p11138
tp11139
Rp11140
ag1
(g5
S'\x05$c='
p11141
tp11142
Rp11143
ag1
(g5
S'\x92\xfbj='
p11144
tp11145
Rp11146
ag1
(g5
S'\xaa\xc5f='
p11147
tp11148
Rp11149
ag1
(g5
S'\x04\rb='
p11150
tp11151
Rp11152
ag1
(g5
S'\x80$d='
p11153
tp11154
Rp11155
ag1
(g5
S'x\xf3s='
p11156
tp11157
Rp11158
ag1
(g5
S'cPf='
p11159
tp11160
Rp11161
ag1
(g5
S'\x1b\xe3r='
p11162
tp11163
Rp11164
ag1
(g5
S'hh`='
p11165
tp11166
Rp11167
ag1
(g5
S'\x93\xd1[<'
p11168
tp11169
Rp11170
ag1
(g5
S'\xc4\xad\xc3<'
p11171
tp11172
Rp11173
ag1
(g5
S'&%\xae<'
p11174
tp11175
Rp11176
ag1
(g5
S'x\xe2\xe2<'
p11177
tp11178
Rp11179
ag1
(g5
S'\xd8\xbf\xcd<'
p11180
tp11181
Rp11182
ag1
(g5
S'\xa4\x07i<'
p11183
tp11184
Rp11185
ag1
(g5
S'\xfd*\x08='
p11186
tp11187
Rp11188
ag1
(g5
S'\x82\xbdH<'
p11189
tp11190
Rp11191
ag1
(g5
S'S\xd2\xa4<'
p11192
tp11193
Rp11194
ag1
(g5
S'\xd0\xf8\xd4<'
p11195
tp11196
Rp11197
ag1
(g5
S'\xde\xefu='
p11198
tp11199
Rp11200
ag1
(g5
S':Z\xf3<'
p11201
tp11202
Rp11203
ag1
(g5
S'\x85\xf2z='
p11204
tp11205
Rp11206
ag1
(g5
S'\x08\x8aE='
p11207
tp11208
Rp11209
ag1
(g5
S'\xd2\xf0\x08='
p11210
tp11211
Rp11212
ag1
(g5
S'\x8a\xabX='
p11213
tp11214
Rp11215
ag1
(g5
S'\xee\x91B='
p11216
tp11217
Rp11218
ag1
(g5
S'b\x0e\xed<'
p11219
tp11220
Rp11221
ag1
(g5
S'\x1e\xc5(='
p11222
tp11223
Rp11224
ag1
(g5
S'\xf4a(='
p11225
tp11226
Rp11227
ag1
(g5
S'\xec\xab\xdd<'
p11228
tp11229
Rp11230
ag1
(g5
S'\xae\xe1\x0c='
p11231
tp11232
Rp11233
ag1
(g5
S'W9$='
p11234
tp11235
Rp11236
ag1
(g5
S'\xc0\xe2\x08='
p11237
tp11238
Rp11239
ag1
(g5
S'\xd3\xf5\xe5<'
p11240
tp11241
Rp11242
ag1
(g5
S'\xde\n\t='
p11243
tp11244
Rp11245
ag1
(g5
S'\xda"\x0c='
p11246
tp11247
Rp11248
ag1
(g5
S'\xa8Q\xe4<'
p11249
tp11250
Rp11251
ag1
(g5
S'\x18d\xf8<'
p11252
tp11253
Rp11254
ag1
(g5
S'\r%\x0b='
p11255
tp11256
Rp11257
ag1
(g5
S'\x0c\xbb\xef<'
p11258
tp11259
Rp11260
ag1
(g5
S'Z\x94\xd1<'
p11261
tp11262
Rp11263
ag1
(g5
S'xP\xe5<'
p11264
tp11265
Rp11266
ag1
(g5
S'\xf6\x13\xf2<'
p11267
tp11268
Rp11269
ag1
(g5
S'\x9d\xbe\xd2<'
p11270
tp11271
Rp11272
ag1
(g5
S'N\x94\xd9<'
p11273
tp11274
Rp11275
ag1
(g5
S'2\xb7\xe9<'
p11276
tp11277
Rp11278
ag1
(g5
S'\xe8i\xdc<'
p11279
tp11280
Rp11281
ag1
(g5
S'\x80\xee\xcc<'
p11282
tp11283
Rp11284
ag1
(g5
S'8o\xd2<'
p11285
tp11286
Rp11287
ag1
(g5
S'\xbb\x82\xdf<'
p11288
tp11289
Rp11290
ag1
(g5
S"\x83'\xd5<"
p11291
tp11292
Rp11293
ag1
(g5
S'8D\xe3<'
p11294
tp11295
Rp11296
ag1
(g5
S'rt\xe2<'
p11297
tp11298
Rp11299
ag1
(g5
S'\x80D\xd9<'
p11300
tp11301
Rp11302
ag1
(g5
S'\x90+\xdb<'
p11303
tp11304
Rp11305
ag1
(g5
S'\x80\x98\xd9<'
p11306
tp11307
Rp11308
ag1
(g5
S'\x10X\xd7<'
p11309
tp11310
Rp11311
ag1
(g5
S'\x04\xbe\xda<'
p11312
tp11313
Rp11314
ag1
(g5
S'\xc17\xdb<'
p11315
tp11316
Rp11317
ag1
(g5
S'\x14\xda\x12='
p11318
tp11319
Rp11320
ag1
(g5
S'\xec\xba\xfa<'
p11321
tp11322
Rp11323
ag1
(g5
S'\xf2d\x06='
p11324
tp11325
Rp11326
ag1
(g5
S'\xa4,\x0c='
p11327
tp11328
Rp11329
ag1
(g5
S'\x15@\x07='
p11330
tp11331
Rp11332
ag1
(g5
S'a\xa43='
p11333
tp11334
Rp11335
ag1
(g5
S'\xee\xae\x08='
p11336
tp11337
Rp11338
ag1
(g5
S'-\xe2\xf7<'
p11339
tp11340
Rp11341
ag1
(g5
S'n\xc4\x14='
p11342
tp11343
Rp11344
ag1
(g5
S'\xc5<\x0c='
p11345
tp11346
Rp11347
ag1
(g5
S'\xf3\xb0\x86='
p11348
tp11349
Rp11350
ag1
(g5
S'L\xca\x89='
p11351
tp11352
Rp11353
ag1
(g5
S'Qb\x89='
p11354
tp11355
Rp11356
ag1
(g5
S'\xefl\x8b='
p11357
tp11358
Rp11359
ag1
(g5
S'\x17\x9c\x88='
p11360
tp11361
Rp11362
ag1
(g5
S'\\&\x8a='
p11363
tp11364
Rp11365
ag1
(g5
S'\xbe\xdd\x84='
p11366
tp11367
Rp11368
ag1
(g5
S'($\x83='
p11369
tp11370
Rp11371
ag1
(g5
S'\x10\x7f\x85='
p11372
tp11373
Rp11374
ag1
(g5
S'\xf2\xab\x84='
p11375
tp11376
Rp11377
ag1
(g5
S'\xfe\xc7\x80='
p11378
tp11379
Rp11380
ag1
(g5
S'\xd8W|='
p11381
tp11382
Rp11383
ag1
(g5
S'\x86\xe9\x83='
p11384
tp11385
Rp11386
ag1
(g5
S'\xff\x19\x81='
p11387
tp11388
Rp11389
ag1
(g5
S'pf\x85='
p11390
tp11391
Rp11392
ag1
(g5
S'O\x14u='
p11393
tp11394
Rp11395
ag1
(g5
S'\x89\xaa{='
p11396
tp11397
Rp11398
ag1
(g5
S'\x01A\x81='
p11399
tp11400
Rp11401
ag1
(g5
S'-X\x7f='
p11402
tp11403
Rp11404
ag1
(g5
S'oLv='
p11405
tp11406
Rp11407
a.