(lp0
cnumpy.core.multiarray
scalar
p1
(cnumpy
dtype
p2
(S'f8'
p3
I0
I1
tp4
Rp5
(I3
S'<'
p6
NNNI-1
I-1
I0
tp7
bS'c\x05B!\xf8\x8a\x7f?'
p8
tp9
Rp10
ag1
(g5
S'r\xeaw0\x88\xb1s?'
p11
tp12
Rp13
ag1
(g5
S'{nI\x18\x7f&s?'
p14
tp15
Rp16
ag1
(g5
S'\xe0s\xeb\xcc>\xb5r?'
p17
tp18
Rp19
ag1
(g5
S'6\x94\xb7g\xfd]r?'
p20
tp21
Rp22
a.