(lp0
cnumpy.core.multiarray
scalar
p1
(cnumpy
dtype
p2
(S'f8'
p3
I0
I1
tp4
Rp5
(I3
S'<'
p6
NNNI-1
I-1
I0
tp7
bS'\xac\\s\xdb\xb4\xee\x86?'
p8
tp9
Rp10
ag1
(g5
S'$\xdc\xe5\x98.D1?'
p11
tp12
Rp13
ag1
(g5
S'\x9c\xc7\xe4}-D1?'
p14
tp15
Rp16
ag1
(g5
S'\xcbPJ\xc8,D1?'
p17
tp18
Rp19
ag1
(g5
S'b\x99\xfa\xb8+D1?'
p20
tp21
Rp22
ag1
(g5
S'\x8f\xc9{\xe3)D1?'
p23
tp24
Rp25
ag1
(g5
S'W\xae9\x15(D1?'
p26
tp27
Rp28
a.