(lp0
cnumpy.core.multiarray
scalar
p1
(cnumpy
dtype
p2
(S'f8'
p3
I0
I1
tp4
Rp5
(I3
S'<'
p6
NNNI-1
I-1
I0
tp7
bS'\xe2\xd4\xefe\xf8\xf3\x9c?'
p8
tp9
Rp10
ag1
(g5
S'Cy\r\r[Z\x9b?'
p11
tp12
Rp13
ag1
(g5
S',\x10F\xf2ZZ\x9b?'
p14
tp15
Rp16
ag1
(g5
S'\x85\x91v\xecZZ\x9b?'
p17
tp18
Rp19
a.