(lp0
cnumpy.core.multiarray
scalar
p1
(cnumpy
dtype
p2
(S'f8'
p3
I0
I1
tp4
Rp5
(I3
S'<'
p6
NNNI-1
I-1
I0
tp7
bS'\xb7\xf6Ju\xc2\xa5\x84?'
p8
tp9
Rp10
ag1
(g5
S' M\xbb\xbd=D1?'
p11
tp12
Rp13
ag1
(g5
S'\xcf@TZ<D1?'
p14
tp15
Rp16
ag1
(g5
S'\xfa]-\xce;D1?'
p17
tp18
Rp19
ag1
(g5
S'\xa4\xca\x96\x86;D1?'
p20
tp21
Rp22
ag1
(g5
S'\x8a\x04\x0bm;D1?'
p23
tp24
Rp25
ag1
(g5
S'5N\xd6`;D1?'
p26
tp27
Rp28
a.