(lp0
cnumpy.core.multiarray
scalar
p1
(cnumpy
dtype
p2
(S'f8'
p3
I0
I1
tp4
Rp5
(I3
S'<'
p6
NNNI-1
I-1
I0
tp7
bS'\x18K~)\xad\x17{?'
p8
tp9
Rp10
ag1
(g5
S')\x15g{\x04|i?'
p11
tp12
Rp13
ag1
(g5
S'\x7f\xd4)\xb7\x7f\x99h?'
p14
tp15
Rp16
ag1
(g5
S'\xb2\x9d\xef\x0b\xb6\xbah?'
p17
tp18
Rp19
ag1
(g5
S'\xc6\x04\x0fFC\xeag?'
p20
tp21
Rp22
a.