(lp0
cnumpy.core.multiarray
scalar
p1
(cnumpy
dtype
p2
(S'f8'
p3
I0
I1
tp4
Rp5
(I3
S'<'
p6
NNNI-1
I-1
I0
tp7
bS'Q\xffFl@\x1e\x89?'
p8
tp9
Rp10
ag1
(g5
S'\xa1f\xf9$\xf4\x96\x81?'
p11
tp12
Rp13
ag1
(g5
S'q\xf1?\x83N\xb1\x80?'
p14
tp15
Rp16
ag1
(g5
S'P\x8d\x97\\\x0cT\x80?'
p17
tp18
Rp19
ag1
(g5
S'=\n\xd7\x13\xbb\x0e\x80?'
p20
tp21
Rp22
a.