(lp0
cnumpy.core.multiarray
scalar
p1
(cnumpy
dtype
p2
(S'f8'
p3
I0
I1
tp4
Rp5
(I3
S'<'
p6
NNNI-1
I-1
I0
tp7
bS'&1\x08\xb8\x01\xee\x85?'
p8
tp9
Rp10
ag1
(g5
S',@\xee\x19\xb8\xffx?'
p11
tp12
Rp13
ag1
(g5
S'\x9c\x0bIo+nx?'
p14
tp15
Rp16
ag1
(g5
S'_s!!\x8d$x?'
p17
tp18
Rp19
ag1
(g5
S'\x18K~5\xaa\xdaw?'
p20
tp21
Rp22
a.