(lp0
cnumpy.core.multiarray
scalar
p1
(cnumpy
dtype
p2
(S'f8'
p3
I0
I1
tp4
Rp5
(I3
S'<'
p6
NNNI-1
I-1
I0
tp7
bS'V\xc7\x04\xb7\xa2\x88\xe1?'
p8
tp9
Rp10
ag1
(g5
S'\xc7K7\xed7\x15\xe1?'
p11
tp12
Rp13
ag1
(g5
S'=\n\xd7c3\xf5\xe0?'
p14
tp15
Rp16
ag1
(g5
S'\x12g\xbc\xb1\x9d*\xe1?'
p17
tp18
Rp19
a.