(lp0
cnumpy.core.multiarray
scalar
p1
(cnumpy
dtype
p2
(S'f8'
p3
I0
I1
tp4
Rp5
(I3
S'<'
p6
NNNI-1
I-1
I0
tp7
bS'U/p\x9fJ\x12\xe2?'
p8
tp9
Rp10
ag1
(g5
S'&RK\x01\xdc\xb0\xe1?'
p11
tp12
Rp13
ag1
(g5
S'\xcb{`\xe8\x03\xa9\xe1?'
p14
tp15
Rp16
ag1
(g5
S'\xa5u\xdf\xaax\x98\xe1?'
p17
tp18
Rp19
a.