(lp0
cnumpy.core.multiarray
scalar
p1
(cnumpy
dtype
p2
(S'f4'
p3
I0
I1
tp4
Rp5
(I3
S'<'
p6
NNNI-1
I-1
I0
tp7
bS'\xe0\xf6\xa6='
p8
tp9
Rp10
ag1
(g5
S'P\xca\xa3='
p11
tp12
Rp13
ag1
(g5
S'\x18C\xa0='
p14
tp15
Rp16
ag1
(g5
S'+\x9c\xa0='
p17
tp18
Rp19
ag1
(g5
S'x@\x99='
p20
tp21
Rp22
ag1
(g5
S'\x12*\xa5='
p23
tp24
Rp25
ag1
(g5
S'\x18\xcd\x9d='
p26
tp27
Rp28
ag1
(g5
S'\xa5\x8b\xa0='
p29
tp30
Rp31
ag1
(g5
S'\xa9\xc5\x9a='
p32
tp33
Rp34
ag1
(g5
S'\x99b\x8d='
p35
tp36
Rp37
ag1
(g5
S'{;\x88='
p38
tp39
Rp40
ag1
(g5
S'\x85\xe1~='
p41
tp42
Rp43
ag1
(g5
S'\xf1\x82i='
p44
tp45
Rp46
ag1
(g5
S'\xa8\x90W='
p47
tp48
Rp49
ag1
(g5
S'\xe2X6='
p50
tp51
Rp52
ag1
(g5
S'\xf9[\x14='
p53
tp54
Rp55
ag1
(g5
S'\x18\x8f\x00='
p56
tp57
Rp58
ag1
(g5
S'\xee\xc6\xc9<'
p59
tp60
Rp61
ag1
(g5
S'\x15[\xaa<'
p62
tp63
Rp64
ag1
(g5
S'\x1a\xe4\xa4<'
p65
tp66
Rp67
ag1
(g5
S'Z\x03\xb1<'
p68
tp69
Rp70
ag1
(g5
S'\x96\x00\xc8<'
p71
tp72
Rp73
ag1
(g5
S'u5\xe6<'
p74
tp75
Rp76
ag1
(g5
S'\n \xec<'
p77
tp78
Rp79
ag1
(g5
S'\x9d\x13\xdd<'
p80
tp81
Rp82
ag1
(g5
S'\x84\x0b\xe7<'
p83
tp84
Rp85
ag1
(g5
S'\xa2\x9b\xe3<'
p86
tp87
Rp88
ag1
(g5
S'@\xfe\xbc<'
p89
tp90
Rp91
ag1
(g5
S'|(\xb7<'
p92
tp93
Rp94
ag1
(g5
S'`i\xaf<'
p95
tp96
Rp97
ag1
(g5
S'\xf2\xf4\xa0<'
p98
tp99
Rp100
ag1
(g5
S'\xf8\x00\xb1<'
p101
tp102
Rp103
ag1
(g5
S'\x8c\x88\xa8<'
p104
tp105
Rp106
ag1
(g5
S'`\xd0\xbc<'
p107
tp108
Rp109
ag1
(g5
S'\x8aK\xb5<'
p110
tp111
Rp112
ag1
(g5
S'?\x1d\xb5<'
p113
tp114
Rp115
ag1
(g5
S'\xdb\xe2\xe5<'
p116
tp117
Rp118
ag1
(g5
S'j\xdd\xe2<'
p119
tp120
Rp121
ag1
(g5
S'ii\xd1<'
p122
tp123
Rp124
ag1
(g5
S',%\xce<'
p125
tp126
Rp127
ag1
(g5
S'\xb8\x06\xc1<'
p128
tp129
Rp130
ag1
(g5
S'\xfe(\xb7<'
p131
tp132
Rp133
ag1
(g5
S'P\x84\xaf<'
p134
tp135
Rp136
ag1
(g5
S'A\xfe\xa1<'
p137
tp138
Rp139
ag1
(g5
S'\x97\xbb\xa1<'
p140
tp141
Rp142
ag1
(g5
S'\x8e%\xa2<'
p143
tp144
Rp145
ag1
(g5
S'\xe4\x8c\xae<'
p146
tp147
Rp148
ag1
(g5
S'\xda\xb1\xa2<'
p149
tp150
Rp151
ag1
(g5
S'"\xee7<'
p152
tp153
Rp154
ag1
(g5
S'#_\x03<'
p155
tp156
Rp157
ag1
(g5
S'\x8f\x02\x1e<'
p158
tp159
Rp160
ag1
(g5
S'\xbe\xe7#<'
p161
tp162
Rp163
ag1
(g5
S'l\xc46<'
p164
tp165
Rp166
ag1
(g5
S'!\xcf"<'
p167
tp168
Rp169
ag1
(g5
S'\xd3\x1c#<'
p170
tp171
Rp172
ag1
(g5
S'q\xc8\x1b<'
p173
tp174
Rp175
ag1
(g5
S'\xd8\x03(<'
p176
tp177
Rp178
ag1
(g5
S'\xbb\x0f <'
p179
tp180
Rp181
ag1
(g5
S'\x8eZ!<'
p182
tp183
Rp184
ag1
(g5
S'G\x81\x07<'
p185
tp186
Rp187
ag1
(g5
S'\xf5\xf7v<'
p188
tp189
Rp190
ag1
(g5
S'\x8e\xa1Y<'
p191
tp192
Rp193
ag1
(g5
S'p\tB<'
p194
tp195
Rp196
ag1
(g5
S'\xd3\x00\x1d<'
p197
tp198
Rp199
ag1
(g5
S'\xac\x08\xe7;'
p200
tp201
Rp202
ag1
(g5
S'X\x07\xd2;'
p203
tp204
Rp205
ag1
(g5
S'\xdam\x95;'
p206
tp207
Rp208
ag1
(g5
S'\x14\x8a\x96;'
p209
tp210
Rp211
ag1
(g5
S'~\xa6\x9b;'
p212
tp213
Rp214
ag1
(g5
S'\xf1~\xa3;'
p215
tp216
Rp217
ag1
(g5
S'\xd1L\x97;'
p218
tp219
Rp220
ag1
(g5
S'\xbc\x0b\xbd;'
p221
tp222
Rp223
ag1
(g5
S'\xfb\xd6V='
p224
tp225
Rp226
ag1
(g5
S'u\xafQ='
p227
tp228
Rp229
ag1
(g5
S'\xcc\xfd\x84='
p230
tp231
Rp232
ag1
(g5
S'\xec\x113='
p233
tp234
Rp235
ag1
(g5
S'\x00\x14}='
p236
tp237
Rp238
ag1
(g5
S'\xfe\x83\t='
p239
tp240
Rp241
ag1
(g5
S'\xfa\xe1\x12='
p242
tp243
Rp244
ag1
(g5
S'\xfb#\xcd<'
p245
tp246
Rp247
ag1
(g5
S'\x00\x17\xe6<'
p248
tp249
Rp250
ag1
(g5
S'\xfb\x94\xd0<'
p251
tp252
Rp253
ag1
(g5
S'\x8a>\xda<'
p254
tp255
Rp256
ag1
(g5
S'\xaa*\xba<'
p257
tp258
Rp259
ag1
(g5
S'\xac]i<'
p260
tp261
Rp262
ag1
(g5
S'\x9bvt<'
p263
tp264
Rp265
ag1
(g5
S'\x0f\x02\x80<'
p266
tp267
Rp268
ag1
(g5
S'\xc2)\x85<'
p269
tp270
Rp271
ag1
(g5
S'Hs\x86<'
p272
tp273
Rp274
ag1
(g5
S'\xd2\n\x90<'
p275
tp276
Rp277
ag1
(g5
S'\xc2\xb2\x8a<'
p278
tp279
Rp280
ag1
(g5
S'\x1d\x1c\x85<'
p281
tp282
Rp283
ag1
(g5
S'\x92\x87u<'
p284
tp285
Rp286
ag1
(g5
S'\xac\xa6s<'
p287
tp288
Rp289
ag1
(g5
S'.^}<'
p290
tp291
Rp292
ag1
(g5
S'\xc4\xc0n<'
p293
tp294
Rp295
ag1
(g5
S'\r\x87v<'
p296
tp297
Rp298
ag1
(g5
S'v\x8dv<'
p299
tp300
Rp301
ag1
(g5
S',\xccx<'
p302
tp303
Rp304
ag1
(g5
S'\x8a\xfay<'
p305
tp306
Rp307
ag1
(g5
S'KU\x80<'
p308
tp309
Rp310
ag1
(g5
S':Uv<'
p311
tp312
Rp313
ag1
(g5
S'K\x88\x83<'
p314
tp315
Rp316
ag1
(g5
S'\xde\xfc|<'
p317
tp318
Rp319
ag1
(g5
S'\x03\x15s<'
p320
tp321
Rp322
ag1
(g5
S'\xf8!\x80<'
p323
tp324
Rp325
ag1
(g5
S'\x80av<'
p326
tp327
Rp328
ag1
(g5
S'\xd6\x01p<'
p329
tp330
Rp331
ag1
(g5
S'Z\x04W<'
p332
tp333
Rp334
ag1
(g5
S'\x08\x90@<'
p335
tp336
Rp337
ag1
(g5
S'.xQ<'
p338
tp339
Rp340
ag1
(g5
S'b\xa8Q<'
p341
tp342
Rp343
ag1
(g5
S'TDH<'
p344
tp345
Rp346
ag1
(g5
S'\xbcYN<'
p347
tp348
Rp349
ag1
(g5
S'j\x9ee<'
p350
tp351
Rp352
ag1
(g5
S'd\rS<'
p353
tp354
Rp355
ag1
(g5
S'\x9c\xe1D<'
p356
tp357
Rp358
ag1
(g5
S'\x01\xf9O<'
p359
tp360
Rp361
ag1
(g5
S'\xce\x99V<'
p362
tp363
Rp364
ag1
(g5
S'z\xc7E<'
p365
tp366
Rp367
ag1
(g5
S'\xa7\x14Z<'
p368
tp369
Rp370
ag1
(g5
S'\xae*T<'
p371
tp372
Rp373
ag1
(g5
S'\xa8\xbaA<'
p374
tp375
Rp376
ag1
(g5
S'\xb7\xaaI<'
p377
tp378
Rp379
ag1
(g5
S'\x1d\xd1I<'
p380
tp381
Rp382
ag1
(g5
S'\xd2\xe8J<'
p383
tp384
Rp385
ag1
(g5
S'\x8f\xddD<'
p386
tp387
Rp388
ag1
(g5
S'\xf0w`<'
p389
tp390
Rp391
ag1
(g5
S'B\x03P<'
p392
tp393
Rp394
ag1
(g5
S'\xc0\\O<'
p395
tp396
Rp397
ag1
(g5
S'\x1a\xdaE<'
p398
tp399
Rp400
ag1
(g5
S'sK><'
p401
tp402
Rp403
ag1
(g5
S'\xea\x1c3<'
p404
tp405
Rp406
ag1
(g5
S'f\xc4B<'
p407
tp408
Rp409
ag1
(g5
S'\xba:%<'
p410
tp411
Rp412
ag1
(g5
S'*F.<'
p413
tp414
Rp415
ag1
(g5
S'X\xf7&<'
p416
tp417
Rp418
ag1
(g5
S'\xae\x97\x1f<'
p419
tp420
Rp421
ag1
(g5
S'c\xa4)<'
p422
tp423
Rp424
ag1
(g5
S'M\xfe)<'
p425
tp426
Rp427
ag1
(g5
S'2Q*<'
p428
tp429
Rp430
ag1
(g5
S'\xee\x177<'
p431
tp432
Rp433
ag1
(g5
S'\xd6\xfa0<'
p434
tp435
Rp436
ag1
(g5
S'"\xfd-<'
p437
tp438
Rp439
ag1
(g5
S'\xb4F+<'
p440
tp441
Rp442
ag1
(g5
S'\x0b\xa6;<'
p443
tp444
Rp445
ag1
(g5
S'Hh3<'
p446
tp447
Rp448
ag1
(g5
S'X\x003<'
p449
tp450
Rp451
ag1
(g5
S'\xf4\x04E<'
p452
tp453
Rp454
ag1
(g5
S' [/<'
p455
tp456
Rp457
ag1
(g5
S'KB4<'
p458
tp459
Rp460
ag1
(g5
S'\xbb\xa6.<'
p461
tp462
Rp463
ag1
(g5
S'\xc3zD<'
p464
tp465
Rp466
ag1
(g5
S'DX*<'
p467
tp468
Rp469
ag1
(g5
S'\x9a\xd1$<'
p470
tp471
Rp472
ag1
(g5
S'\x94\xe6*<'
p473
tp474
Rp475
ag1
(g5
S'\x89JC<'
p476
tp477
Rp478
ag1
(g5
S'\x1aH%<'
p479
tp480
Rp481
ag1
(g5
S'\x8c\x1cg<'
p482
tp483
Rp484
ag1
(g5
S'<%;<'
p485
tp486
Rp487
ag1
(g5
S'\x9cL-<'
p488
tp489
Rp490
ag1
(g5
S'?\xd0\x1e<'
p491
tp492
Rp493
ag1
(g5
S'\x82X\x15<'
p494
tp495
Rp496
ag1
(g5
S'x\x15;<'
p497
tp498
Rp499
ag1
(g5
S'j\x1c=<'
p500
tp501
Rp502
ag1
(g5
S'\xab\xab9<'
p503
tp504
Rp505
ag1
(g5
S'n\xbdJ<'
p506
tp507
Rp508
ag1
(g5
S'\xafxK<'
p509
tp510
Rp511
ag1
(g5
S'*#\x1a<'
p512
tp513
Rp514
ag1
(g5
S'\xa9\xb2\x05<'
p515
tp516
Rp517
ag1
(g5
S'\xdc<\x19<'
p518
tp519
Rp520
ag1
(g5
S'W\x92\x0f<'
p521
tp522
Rp523
ag1
(g5
S'\xba\xac\x1f<'
p524
tp525
Rp526
ag1
(g5
S'*\x9d\x0b<'
p527
tp528
Rp529
ag1
(g5
S'\x04\x88\t<'
p530
tp531
Rp532
ag1
(g5
S'\xaej\x0c<'
p533
tp534
Rp535
ag1
(g5
S'\x1a\xf6\x0c<'
p536
tp537
Rp538
ag1
(g5
S'\xd6\xa9\x11<'
p539
tp540
Rp541
ag1
(g5
S'5\xca\x14<'
p542
tp543
Rp544
ag1
(g5
S'\xa0\xfd\x0b<'
p545
tp546
Rp547
ag1
(g5
S'\x94\x9a,<'
p548
tp549
Rp550
ag1
(g5
S'\xdfV$<'
p551
tp552
Rp553
ag1
(g5
S'\x01\x0e"<'
p554
tp555
Rp556
ag1
(g5
S'\xee\x81"<'
p557
tp558
Rp559
ag1
(g5
S'\xbcM\x1d<'
p560
tp561
Rp562
ag1
(g5
S'\xad\xc0\x16<'
p563
tp564
Rp565
ag1
(g5
S'8\xdd1<'
p566
tp567
Rp568
ag1
(g5
S'h\xb0\x1c<'
p569
tp570
Rp571
ag1
(g5
S'\xfb,\x18<'
p572
tp573
Rp574
ag1
(g5
S'\x8cr\x15<'
p575
tp576
Rp577
ag1
(g5
S'\x8d\xbf\x06<'
p578
tp579
Rp580
ag1
(g5
S'\x1c\x80\x00<'
p581
tp582
Rp583
ag1
(g5
S'\xad\xfa\x1b<'
p584
tp585
Rp586
ag1
(g5
S'b\xee\x1e<'
p587
tp588
Rp589
ag1
(g5
S'j\xc0\x0f<'
p590
tp591
Rp592
ag1
(g5
S'Z\xc8\x16<'
p593
tp594
Rp595
ag1
(g5
S'\xd8\xb9\x0c<'
p596
tp597
Rp598
ag1
(g5
S'`\x17\x1c<'
p599
tp600
Rp601
ag1
(g5
S'9C\x15<'
p602
tp603
Rp604
ag1
(g5
S'N\x1f\x0c<'
p605
tp606
Rp607
ag1
(g5
S'\xa8\\\x13<'
p608
tp609
Rp610
ag1
(g5
S'\xd9\x92\x02<'
p611
tp612
Rp613
ag1
(g5
S'\xae\x9b\x1c<'
p614
tp615
Rp616
ag1
(g5
S'Hx\xfe;'
p617
tp618
Rp619
ag1
(g5
S'b\xd9\xf6;'
p620
tp621
Rp622
ag1
(g5
S'\x003\x07<'
p623
tp624
Rp625
ag1
(g5
S'\xd4\xf0\x07<'
p626
tp627
Rp628
ag1
(g5
S'M#\t<'
p629
tp630
Rp631
ag1
(g5
S'z.\x00<'
p632
tp633
Rp634
ag1
(g5
S'\x92\xae\x0c<'
p635
tp636
Rp637
ag1
(g5
S'y3\x00<'
p638
tp639
Rp640
ag1
(g5
S'p\xa3\xeb;'
p641
tp642
Rp643
ag1
(g5
S'\x85\xae\xfc;'
p644
tp645
Rp646
ag1
(g5
S'\x0b\r\x14<'
p647
tp648
Rp649
ag1
(g5
S'X\x95\xf2;'
p650
tp651
Rp652
ag1
(g5
S'>\x18\x04<'
p653
tp654
Rp655
ag1
(g5
S'V\x1c\x11<'
p656
tp657
Rp658
ag1
(g5
S'\x16<\x08<'
p659
tp660
Rp661
ag1
(g5
S'\xdev\xf8;'
p662
tp663
Rp664
ag1
(g5
S'\xc6\xc1\x10<'
p665
tp666
Rp667
ag1
(g5
S'\xdc\x15\xf9;'
p668
tp669
Rp670
ag1
(g5
S'\xe0`\r<'
p671
tp672
Rp673
ag1
(g5
S'\xd5\x07\x08<'
p674
tp675
Rp676
ag1
(g5
S'\xfd\x16\x08<'
p677
tp678
Rp679
ag1
(g5
S'\xe9\x17\x07<'
p680
tp681
Rp682
ag1
(g5
S'\xc2I\x0e<'
p683
tp684
Rp685
ag1
(g5
S'\x8d\xc1\xf9;'
p686
tp687
Rp688
ag1
(g5
S']\xf1\xe8;'
p689
tp690
Rp691
ag1
(g5
S'e@2<'
p692
tp693
Rp694
ag1
(g5
S'\xc5\xc4+<'
p695
tp696
Rp697
ag1
(g5
S'S\xed\x08<'
p698
tp699
Rp700
ag1
(g5
S'\x94j\x18<'
p701
tp702
Rp703
ag1
(g5
S'\x98\xfa\x1d<'
p704
tp705
Rp706
ag1
(g5
S'\xa3\x86\x0c<'
p707
tp708
Rp709
ag1
(g5
S'\x87_\r<'
p710
tp711
Rp712
ag1
(g5
S'\xd7B\x1d<'
p713
tp714
Rp715
ag1
(g5
S'\xab\xb7\x15<'
p716
tp717
Rp718
ag1
(g5
S'\xc6\xf5\x16<'
p719
tp720
Rp721
ag1
(g5
S"RG'<"
p722
tp723
Rp724
ag1
(g5
S'\x06\xfb\x12<'
p725
tp726
Rp727
ag1
(g5
S'.\xe3\xfd;'
p728
tp729
Rp730
ag1
(g5
S'\x82\x96\xe3;'
p731
tp732
Rp733
ag1
(g5
S'|*\x03<'
p734
tp735
Rp736
ag1
(g5
S'\xe3\xf6\xf0;'
p737
tp738
Rp739
ag1
(g5
S'\xbcy\xf5;'
p740
tp741
Rp742
ag1
(g5
S'g\x87\xf0;'
p743
tp744
Rp745
ag1
(g5
S'\xfe\n\xf1;'
p746
tp747
Rp748
ag1
(g5
S'U\xc2\xff;'
p749
tp750
Rp751
ag1
(g5
S'\x83H\xf6;'
p752
tp753
Rp754
ag1
(g5
S'\xf1b\xef;'
p755
tp756
Rp757
ag1
(g5
S'z\xd2\xed;'
p758
tp759
Rp760
ag1
(g5
S'\x02\xff\xd3;'
p761
tp762
Rp763
ag1
(g5
S'\xc8\xe3\x12<'
p764
tp765
Rp766
ag1
(g5
S'\x0f\x01\x03<'
p767
tp768
Rp769
ag1
(g5
S'\x92\xfa\x0c<'
p770
tp771
Rp772
ag1
(g5
S'\x9e\x82\x06<'
p773
tp774
Rp775
ag1
(g5
S'%}\x06<'
p776
tp777
Rp778
ag1
(g5
S'\\\xb5\x06<'
p779
tp780
Rp781
ag1
(g5
S'\x82\xb8\x0b<'
p782
tp783
Rp784
ag1
(g5
S'i\xf3\xf2;'
p785
tp786
Rp787
ag1
(g5
S'\xbe\xc3\xf5;'
p788
tp789
Rp790
ag1
(g5
S'\x8a\x9c\xfc;'
p791
tp792
Rp793
ag1
(g5
S'2\xbd\t<'
p794
tp795
Rp796
ag1
(g5
S'\xaf\x04\x06<'
p797
tp798
Rp799
ag1
(g5
S'\xfaD\xe1;'
p800
tp801
Rp802
ag1
(g5
S'*)\xe6;'
p803
tp804
Rp805
ag1
(g5
S'\x8c\xd5\xdf;'
p806
tp807
Rp808
ag1
(g5
S'\x90\x81\xcf;'
p809
tp810
Rp811
ag1
(g5
S'\x85\x13\xd8;'
p812
tp813
Rp814
ag1
(g5
S'\x90\xa6\xdd;'
p815
tp816
Rp817
ag1
(g5
S'\xa22\xd7;'
p818
tp819
Rp820
ag1
(g5
S'\xb7\xfe\xd1;'
p821
tp822
Rp823
ag1
(g5
S'\x05\xd7\xf2;'
p824
tp825
Rp826
ag1
(g5
S'\x7f\x8c\xec;'
p827
tp828
Rp829
ag1
(g5
S'\x8e\xbd\xd9;'
p830
tp831
Rp832
ag1
(g5
S'U\xb1\xcc;'
p833
tp834
Rp835
ag1
(g5
S'\xd8\xf1d<'
p836
tp837
Rp838
ag1
(g5
S'\x97>3<'
p839
tp840
Rp841
ag1
(g5
S'\xf7\xa3><'
p842
tp843
Rp844
ag1
(g5
S'\xdc\xf5:<'
p845
tp846
Rp847
ag1
(g5
S'\x08\xdeY<'
p848
tp849
Rp850
ag1
(g5
S'\xfa"1<'
p851
tp852
Rp853
ag1
(g5
S'\x16u%<'
p854
tp855
Rp856
ag1
(g5
S'`Kd<'
p857
tp858
Rp859
ag1
(g5
S'\\\xf7E<'
p860
tp861
Rp862
ag1
(g5
S'BwD<'
p863
tp864
Rp865
ag1
(g5
S'\xc8dT<'
p866
tp867
Rp868
ag1
(g5
S'\xa7\xf0(<'
p869
tp870
Rp871
ag1
(g5
S'\x10ny<'
p872
tp873
Rp874
ag1
(g5
S'\x8f5\x80<'
p875
tp876
Rp877
ag1
(g5
S'\x01\x06\x89<'
p878
tp879
Rp880
ag1
(g5
S'kx\x8a<'
p881
tp882
Rp883
ag1
(g5
S'\xb4\xb4\x88<'
p884
tp885
Rp886
ag1
(g5
S'\x9cW}<'
p887
tp888
Rp889
ag1
(g5
S'\xbc;\x84<'
p890
tp891
Rp892
ag1
(g5
S'\r\xa3u<'
p893
tp894
Rp895
ag1
(g5
S'0\r\x86<'
p896
tp897
Rp898
ag1
(g5
S'\xdf\xa7y<'
p899
tp900
Rp901
ag1
(g5
S'+\x0f\x87<'
p902
tp903
Rp904
ag1
(g5
S'\xfe|\x88<'
p905
tp906
Rp907
ag1
(g5
S'\x9f\x9a\x8a;'
p908
tp909
Rp910
ag1
(g5
S'\x88\xdf\x8c;'
p911
tp912
Rp913
ag1
(g5
S'\x88\x9f};'
p914
tp915
Rp916
ag1
(g5
S'\xaa\xea\x80;'
p917
tp918
Rp919
ag1
(g5
S'n)~;'
p920
tp921
Rp922
ag1
(g5
S'\x1b\xa8w;'
p923
tp924
Rp925
ag1
(g5
S'\xd1)\x7f;'
p926
tp927
Rp928
ag1
(g5
S'\xb4\x1d\x84;'
p929
tp930
Rp931
ag1
(g5
S'[\tf;'
p932
tp933
Rp934
ag1
(g5
S'\xeel_;'
p935
tp936
Rp937
ag1
(g5
S'\xd6\x8db;'
p938
tp939
Rp940
ag1
(g5
S'\x8e\xdeZ;'
p941
tp942
Rp943
ag1
(g5
S'\x0f9I<'
p944
tp945
Rp946
ag1
(g5
S'>{^<'
p947
tp948
Rp949
ag1
(g5
S'T\xaeN<'
p950
tp951
Rp952
ag1
(g5
S'\x94\x03?<'
p953
tp954
Rp955
ag1
(g5
S'k\xb31<'
p956
tp957
Rp958
ag1
(g5
S'\\\xb5=<'
p959
tp960
Rp961
ag1
(g5
S'\x82\xd23<'
p962
tp963
Rp964
ag1
(g5
S'}V)<'
p965
tp966
Rp967
ag1
(g5
S'O\xaa-<'
p968
tp969
Rp970
ag1
(g5
S'<\x11!<'
p971
tp972
Rp973
ag1
(g5
S'\x95\x1e#<'
p974
tp975
Rp976
ag1
(g5
S'\x8c{\x0b<'
p977
tp978
Rp979
ag1
(g5
S'\x90\xc41<'
p980
tp981
Rp982
ag1
(g5
S'\xbc\xadB<'
p983
tp984
Rp985
ag1
(g5
S'\xac\x7f2<'
p986
tp987
Rp988
ag1
(g5
S'\xa6\xf7/<'
p989
tp990
Rp991
ag1
(g5
S'\xe0\xab8<'
p992
tp993
Rp994
ag1
(g5
S'1\xea?<'
p995
tp996
Rp997
ag1
(g5
S'\xdf\x89:<'
p998
tp999
Rp1000
ag1
(g5
S'\x9470<'
p1001
tp1002
Rp1003
ag1
(g5
S'\x1c\xfa9<'
p1004
tp1005
Rp1006
ag1
(g5
S'\x04.0<'
p1007
tp1008
Rp1009
ag1
(g5
S'L`2<'
p1010
tp1011
Rp1012
ag1
(g5
S'Q\xe43<'
p1013
tp1014
Rp1015
ag1
(g5
S'\xc3\x1e\x1e<'
p1016
tp1017
Rp1018
ag1
(g5
S'\xf2K"<'
p1019
tp1020
Rp1021
ag1
(g5
S'\xf3N <'
p1022
tp1023
Rp1024
ag1
(g5
S'\xa4\xc8(<'
p1025
tp1026
Rp1027
ag1
(g5
S'd\xb3(<'
p1028
tp1029
Rp1030
ag1
(g5
S'\xf3\x04*<'
p1031
tp1032
Rp1033
ag1
(g5
S'@\x96\x1a<'
p1034
tp1035
Rp1036
ag1
(g5
S'\xd7]\x1e<'
p1037
tp1038
Rp1039
ag1
(g5
S'\x0e5!<'
p1040
tp1041
Rp1042
ag1
(g5
S'\xb6\xf6+<'
p1043
tp1044
Rp1045
ag1
(g5
S'\xd9\xc62<'
p1046
tp1047
Rp1048
ag1
(g5
S'F\x02E<'
p1049
tp1050
Rp1051
ag1
(g5
S'\x8ez!<'
p1052
tp1053
Rp1054
ag1
(g5
S'\x02\xe5\x1d<'
p1055
tp1056
Rp1057
ag1
(g5
S'\xb5\xd3)<'
p1058
tp1059
Rp1060
ag1
(g5
S'vg\x19<'
p1061
tp1062
Rp1063
ag1
(g5
S'\xd1x,<'
p1064
tp1065
Rp1066
ag1
(g5
S'\x00n\x1d<'
p1067
tp1068
Rp1069
ag1
(g5
S"\x03F'<"
p1070
tp1071
Rp1072
ag1
(g5
S'z\x1e\x1f<'
p1073
tp1074
Rp1075
ag1
(g5
S'\x16\x98*<'
p1076
tp1077
Rp1078
ag1
(g5
S'\x92\xbb$<'
p1079
tp1080
Rp1081
ag1
(g5
S'\xabU"<'
p1082
tp1083
Rp1084
ag1
(g5
S'.\xf0 <'
p1085
tp1086
Rp1087
ag1
(g5
S'\x86\x82\x1c<'
p1088
tp1089
Rp1090
ag1
(g5
S'|m\x1d<'
p1091
tp1092
Rp1093
ag1
(g5
S'\xb6O/<'
p1094
tp1095
Rp1096
ag1
(g5
S'\x13\xd6\x1b<'
p1097
tp1098
Rp1099
ag1
(g5
S'\x16\xff\x1f<'
p1100
tp1101
Rp1102
ag1
(g5
S'\x16<&<'
p1103
tp1104
Rp1105
ag1
(g5
S'v\x86(<'
p1106
tp1107
Rp1108
ag1
(g5
S'rV+<'
p1109
tp1110
Rp1111
ag1
(g5
S'bC.<'
p1112
tp1113
Rp1114
ag1
(g5
S'\xa5~\x1a<'
p1115
tp1116
Rp1117
ag1
(g5
S'\xc3"\x1d<'
p1118
tp1119
Rp1120
ag1
(g5
S'\xaem\x19<'
p1121
tp1122
Rp1123
ag1
(g5
S'\xdf5\x12<'
p1124
tp1125
Rp1126
ag1
(g5
S'\xcc\x0b\r<'
p1127
tp1128
Rp1129
ag1
(g5
S'\x1c@\x13<'
p1130
tp1131
Rp1132
ag1
(g5
S'l\x0b\x08<'
p1133
tp1134
Rp1135
ag1
(g5
S'}E\r<'
p1136
tp1137
Rp1138
ag1
(g5
S'd\xb1\x15<'
p1139
tp1140
Rp1141
ag1
(g5
S'0L\x17<'
p1142
tp1143
Rp1144
ag1
(g5
S'9\xc3\x0f<'
p1145
tp1146
Rp1147
ag1
(g5
S'\xb05\x19<'
p1148
tp1149
Rp1150
ag1
(g5
S'N~\x08<'
p1151
tp1152
Rp1153
ag1
(g5
S'\xd6\xa8\x15<'
p1154
tp1155
Rp1156
ag1
(g5
S'#\xc4\x13<'
p1157
tp1158
Rp1159
ag1
(g5
S'l\xd2 <'
p1160
tp1161
Rp1162
ag1
(g5
S'\xd2\r\x11<'
p1163
tp1164
Rp1165
ag1
(g5
S'g\x98\r<'
p1166
tp1167
Rp1168
ag1
(g5
S'\x9e\xc3\x0f<'
p1169
tp1170
Rp1171
ag1
(g5
S'\xb5d\x12<'
p1172
tp1173
Rp1174
ag1
(g5
S'K;\x15<'
p1175
tp1176
Rp1177
ag1
(g5
S'\x9f\xdb\x11<'
p1178
tp1179
Rp1180
ag1
(g5
S'\x94\x1d\r<'
p1181
tp1182
Rp1183
ag1
(g5
S'\xc7\x17\t<'
p1184
tp1185
Rp1186
ag1
(g5
S'R\xc6\x11<'
p1187
tp1188
Rp1189
ag1
(g5
S' \xba\x18<'
p1190
tp1191
Rp1192
ag1
(g5
S'\xc2\x18\x15<'
p1193
tp1194
Rp1195
ag1
(g5
S'\xd4\x14\x16<'
p1196
tp1197
Rp1198
ag1
(g5
S'<\xf3\x01<'
p1199
tp1200
Rp1201
ag1
(g5
S'\x9f\x9a\x10<'
p1202
tp1203
Rp1204
ag1
(g5
S':\x06\x0f<'
p1205
tp1206
Rp1207
ag1
(g5
S'[\xc2\x0b<'
p1208
tp1209
Rp1210
ag1
(g5
S'\x85\xde\x0e<'
p1211
tp1212
Rp1213
ag1
(g5
S'\xaf=\n<'
p1214
tp1215
Rp1216
ag1
(g5
S'\xef\xd7\r<'
p1217
tp1218
Rp1219
ag1
(g5
S'r\x84\x07<'
p1220
tp1221
Rp1222
ag1
(g5
S'A\x05\x08<'
p1223
tp1224
Rp1225
ag1
(g5
S'"\xeb\x07<'
p1226
tp1227
Rp1228
ag1
(g5
S'\x86\xbc\t<'
p1229
tp1230
Rp1231
ag1
(g5
S'\\Z\x15<'
p1232
tp1233
Rp1234
ag1
(g5
S'\xccm\n<'
p1235
tp1236
Rp1237
ag1
(g5
S'\xe5r\x10<'
p1238
tp1239
Rp1240
ag1
(g5
S' \xd2\x0e<'
p1241
tp1242
Rp1243
ag1
(g5
S'\xb2>\x0e<'
p1244
tp1245
Rp1246
ag1
(g5
S'\x93\xbc\t<'
p1247
tp1248
Rp1249
ag1
(g5
S'N\x8c\x03<'
p1250
tp1251
Rp1252
ag1
(g5
S'\x16\xc6\xfb;'
p1253
tp1254
Rp1255
ag1
(g5
S'zL\x07<'
p1256
tp1257
Rp1258
ag1
(g5
S'\xfa\x99\x01<'
p1259
tp1260
Rp1261
ag1
(g5
S'\xca\x19\x0b<'
p1262
tp1263
Rp1264
ag1
(g5
S'B\x9e\x08<'
p1265
tp1266
Rp1267
ag1
(g5
S']G\x05<'
p1268
tp1269
Rp1270
ag1
(g5
S'\xe8\xce\x04<'
p1271
tp1272
Rp1273
ag1
(g5
S'\x9c\x90\x06<'
p1274
tp1275
Rp1276
ag1
(g5
S'\xfc\x08\x13<'
p1277
tp1278
Rp1279
ag1
(g5
S'\xe5\xa2\x07<'
p1280
tp1281
Rp1282
ag1
(g5
S'\xcfE\x03<'
p1283
tp1284
Rp1285
ag1
(g5
S'\x8fu\xf3;'
p1286
tp1287
Rp1288
ag1
(g5
S':\xea\xfc;'
p1289
tp1290
Rp1291
ag1
(g5
S'\xca\xd7\x13<'
p1292
tp1293
Rp1294
ag1
(g5
S'\x96\x00\xf5;'
p1295
tp1296
Rp1297
ag1
(g5
S'\x82d\xf6;'
p1298
tp1299
Rp1300
ag1
(g5
S'\\\xc0\xe1;'
p1301
tp1302
Rp1303
ag1
(g5
S'J:\x04<'
p1304
tp1305
Rp1306
ag1
(g5
S'\xdd\xd9\xfc;'
p1307
tp1308
Rp1309
ag1
(g5
S'4\x1c\x04<'
p1310
tp1311
Rp1312
ag1
(g5
S'u\xe0\x00<'
p1313
tp1314
Rp1315
ag1
(g5
S"\x84'\xfc;"
p1316
tp1317
Rp1318
ag1
(g5
S'\xb8\x1d\xf7;'
p1319
tp1320
Rp1321
ag1
(g5
S'd\xe2\xf7;'
p1322
tp1323
Rp1324
ag1
(g5
S'\x1e\xcf\xeb;'
p1325
tp1326
Rp1327
ag1
(g5
S'3\xa6\x00<'
p1328
tp1329
Rp1330
ag1
(g5
S'K\xf2\xf6;'
p1331
tp1332
Rp1333
ag1
(g5
S's\x1c\x00<'
p1334
tp1335
Rp1336
ag1
(g5
S'i\x0e\r<'
p1337
tp1338
Rp1339
ag1
(g5
S'Pn\x02<'
p1340
tp1341
Rp1342
ag1
(g5
S'\xc8z\x0f<'
p1343
tp1344
Rp1345
ag1
(g5
S'\x01\xe6\x0c<'
p1346
tp1347
Rp1348
ag1
(g5
S'\x08h\x07<'
p1349
tp1350
Rp1351
ag1
(g5
S'\x87\x86\x04<'
p1352
tp1353
Rp1354
ag1
(g5
S'7Q\x01<'
p1355
tp1356
Rp1357
ag1
(g5
S'\x1e\x88\x03<'
p1358
tp1359
Rp1360
ag1
(g5
S'zo\x04<'
p1361
tp1362
Rp1363
ag1
(g5
S',\xcc\xfe;'
p1364
tp1365
Rp1366
ag1
(g5
S'\xe9\xb9\x00<'
p1367
tp1368
Rp1369
ag1
(g5
S'\xa6^\x02<'
p1370
tp1371
Rp1372
ag1
(g5
S'U\xa5\n<'
p1373
tp1374
Rp1375
ag1
(g5
S'\xcd\xa5\x00<'
p1376
tp1377
Rp1378
ag1
(g5
S'\x7f\x05\t<'
p1379
tp1380
Rp1381
ag1
(g5
S'\xc0M\xef;'
p1382
tp1383
Rp1384
ag1
(g5
S'2\xaa\xf5;'
p1385
tp1386
Rp1387
ag1
(g5
S'\xb1\xb5\xea;'
p1388
tp1389
Rp1390
ag1
(g5
S'W\xf0\xf2;'
p1391
tp1392
Rp1393
ag1
(g5
S'.\xd4\xf9;'
p1394
tp1395
Rp1396
ag1
(g5
S'\x8e\xeb\xf2;'
p1397
tp1398
Rp1399
ag1
(g5
S'fy\xf4;'
p1400
tp1401
Rp1402
ag1
(g5
S'\x9cZ\xe8;'
p1403
tp1404
Rp1405
ag1
(g5
S'\x0cJ\xe8;'
p1406
tp1407
Rp1408
ag1
(g5
S'\xaa\xc5\xe1;'
p1409
tp1410
Rp1411
ag1
(g5
S'>\xe9\xd1;'
p1412
tp1413
Rp1414
ag1
(g5
S'\xcf\x08\xef;'
p1415
tp1416
Rp1417
ag1
(g5
S'\xce,\xf1;'
p1418
tp1419
Rp1420
ag1
(g5
S'\xd4v\xf8;'
p1421
tp1422
Rp1423
ag1
(g5
S'\x1dO\xf8;'
p1424
tp1425
Rp1426
ag1
(g5
S'\x8c\x97\xfe;'
p1427
tp1428
Rp1429
ag1
(g5
S'X\x19\xf4;'
p1430
tp1431
Rp1432
ag1
(g5
S'-\xbc\xee;'
p1433
tp1434
Rp1435
ag1
(g5
S'\xce\x9c\xe8;'
p1436
tp1437
Rp1438
ag1
(g5
S'\xa5U\xea;'
p1439
tp1440
Rp1441
ag1
(g5
S'vD\xe3;'
p1442
tp1443
Rp1444
ag1
(g5
S'\xee\x1d\xe6;'
p1445
tp1446
Rp1447
ag1
(g5
S'\xb0\x97\xca;'
p1448
tp1449
Rp1450
ag1
(g5
S'\x1e\xfe\xe2;'
p1451
tp1452
Rp1453
ag1
(g5
S'=\xab\xcb;'
p1454
tp1455
Rp1456
ag1
(g5
S'\xe0\x16\xd0;'
p1457
tp1458
Rp1459
ag1
(g5
S'\xeb\x15\xd4;'
p1460
tp1461
Rp1462
ag1
(g5
S'\x10\x9f\xd2;'
p1463
tp1464
Rp1465
ag1
(g5
S'^,\xcc;'
p1466
tp1467
Rp1468
ag1
(g5
S'2\t\xdc;'
p1469
tp1470
Rp1471
ag1
(g5
S'4\xc1\xcd;'
p1472
tp1473
Rp1474
ag1
(g5
S'\xb3\xde\xd3;'
p1475
tp1476
Rp1477
ag1
(g5
S'\x8a\x82\xd1;'
p1478
tp1479
Rp1480
ag1
(g5
S'\x84%\xda;'
p1481
tp1482
Rp1483
ag1
(g5
S'f?\x03<'
p1484
tp1485
Rp1486
ag1
(g5
S'\xfe\xd9\xed;'
p1487
tp1488
Rp1489
ag1
(g5
S'\xc4T\xe5;'
p1490
tp1491
Rp1492
ag1
(g5
S'\x88\xde\xea;'
p1493
tp1494
Rp1495
ag1
(g5
S'\xb3\x8f\xf7;'
p1496
tp1497
Rp1498
ag1
(g5
S'\xc1\xa8\xf5;'
p1499
tp1500
Rp1501
ag1
(g5
S'\xb2\x0e\xec;'
p1502
tp1503
Rp1504
ag1
(g5
S'*9\x03<'
p1505
tp1506
Rp1507
ag1
(g5
S'\n\n\x08<'
p1508
tp1509
Rp1510
ag1
(g5
S'z"\xf7;'
p1511
tp1512
Rp1513
ag1
(g5
S',\xbe\xe8;'
p1514
tp1515
Rp1516
ag1
(g5
S'\x9aR\x0b<'
p1517
tp1518
Rp1519
ag1
(g5
S'\xce>\xfd;'
p1520
tp1521
Rp1522
ag1
(g5
S'\x08\xdf\xfe;'
p1523
tp1524
Rp1525
ag1
(g5
S'\xb4 \x07<'
p1526
tp1527
Rp1528
ag1
(g5
S'"\x1c\xfc;'
p1529
tp1530
Rp1531
ag1
(g5
S'\x80\x88\xff;'
p1532
tp1533
Rp1534
ag1
(g5
S'^l\x01<'
p1535
tp1536
Rp1537
ag1
(g5
S'\x95\xd2\r<'
p1538
tp1539
Rp1540
ag1
(g5
S'\xb8\xcf\x12<'
p1541
tp1542
Rp1543
ag1
(g5
S'T\xa3\x0e<'
p1544
tp1545
Rp1546
ag1
(g5
S'p7\xed;'
p1547
tp1548
Rp1549
ag1
(g5
S'\x1c\x9c\x08<'
p1550
tp1551
Rp1552
ag1
(g5
S'\xbb\xc1\x05<'
p1553
tp1554
Rp1555
ag1
(g5
S'>\xc33<'
p1556
tp1557
Rp1558
ag1
(g5
S'010<'
p1559
tp1560
Rp1561
ag1
(g5
S'|\x881<'
p1562
tp1563
Rp1564
ag1
(g5
S'\x01\x1a\r<'
p1565
tp1566
Rp1567
ag1
(g5
S'\x08u\x1a<'
p1568
tp1569
Rp1570
ag1
(g5
S'\xf2\xbd%<'
p1571
tp1572
Rp1573
ag1
(g5
S"\x1c'&<"
p1574
tp1575
Rp1576
ag1
(g5
S'p.;<'
p1577
tp1578
Rp1579
ag1
(g5
S'\xaaB*<'
p1580
tp1581
Rp1582
ag1
(g5
S'a\x00\x18<'
p1583
tp1584
Rp1585
ag1
(g5
S'\xb4^3<'
p1586
tp1587
Rp1588
ag1
(g5
S'6i/<'
p1589
tp1590
Rp1591
ag1
(g5
S'Tk5<'
p1592
tp1593
Rp1594
ag1
(g5
S'N\xd49<'
p1595
tp1596
Rp1597
ag1
(g5
S'\x9d\xb50<'
p1598
tp1599
Rp1600
ag1
(g5
S'\xc2\x1f0<'
p1601
tp1602
Rp1603
ag1
(g5
S'\xc8\x81;<'
p1604
tp1605
Rp1606
ag1
(g5
S'\x8d@.<'
p1607
tp1608
Rp1609
ag1
(g5
S'B}7<'
p1610
tp1611
Rp1612
ag1
(g5
S'\xbf\x064<'
p1613
tp1614
Rp1615
ag1
(g5
S'\xe0(/<'
p1616
tp1617
Rp1618
ag1
(g5
S'&\xce6<'
p1619
tp1620
Rp1621
ag1
(g5
S'\xdd/*<'
p1622
tp1623
Rp1624
ag1
(g5
S'C\xb8@<'
p1625
tp1626
Rp1627
ag1
(g5
S':Nt<'
p1628
tp1629
Rp1630
ag1
(g5
S'\xd7p\x17<'
p1631
tp1632
Rp1633
ag1
(g5
S'<\xae\xbe;'
p1634
tp1635
Rp1636
ag1
(g5
S'\xeb\xcc\xe2;'
p1637
tp1638
Rp1639
ag1
(g5
S'\x1ek\xc7;'
p1640
tp1641
Rp1642
ag1
(g5
S'\xbd\xaa\x8b;'
p1643
tp1644
Rp1645
ag1
(g5
S'H\xff\x8d;'
p1646
tp1647
Rp1648
ag1
(g5
S'Jy\x9d;'
p1649
tp1650
Rp1651
ag1
(g5
S'\x04\xc3\xbf;'
p1652
tp1653
Rp1654
ag1
(g5
S'\x1a\x8c\xc1;'
p1655
tp1656
Rp1657
ag1
(g5
S'<\xad\xe0;'
p1658
tp1659
Rp1660
ag1
(g5
S'\x16\xa1\xc0;'
p1661
tp1662
Rp1663
ag1
(g5
S'n2\xc6;'
p1664
tp1665
Rp1666
ag1
(g5
S'5\r\xbb;'
p1667
tp1668
Rp1669
ag1
(g5
S'\xd7\x8d\x99;'
p1670
tp1671
Rp1672
ag1
(g5
S'\xffM};'
p1673
tp1674
Rp1675
ag1
(g5
S',\xf1\x8d;'
p1676
tp1677
Rp1678
ag1
(g5
S'\xc6Z\xb0;'
p1679
tp1680
Rp1681
ag1
(g5
S'\xf9\xb3\x8e;'
p1682
tp1683
Rp1684
ag1
(g5
S'(U\x82;'
p1685
tp1686
Rp1687
ag1
(g5
S'\x94=\x86;'
p1688
tp1689
Rp1690
ag1
(g5
S'8\x03|;'
p1691
tp1692
Rp1693
ag1
(g5
S'0\x7f\x8a;'
p1694
tp1695
Rp1696
ag1
(g5
S'\x08\x9f\x93;'
p1697
tp1698
Rp1699
ag1
(g5
S'\xee\x93\x83;'
p1700
tp1701
Rp1702
ag1
(g5
S'\xe2\xf3^;'
p1703
tp1704
Rp1705
ag1
(g5
S'r?D;'
p1706
tp1707
Rp1708
ag1
(g5
S'v\xbf=;'
p1709
tp1710
Rp1711
ag1
(g5
S'\x82\x90;;'
p1712
tp1713
Rp1714
ag1
(g5
S',\x15b;'
p1715
tp1716
Rp1717
ag1
(g5
S'd\x1fC;'
p1718
tp1719
Rp1720
ag1
(g5
S'r4=;'
p1721
tp1722
Rp1723
ag1
(g5
S'[\xb57;'
p1724
tp1725
Rp1726
ag1
(g5
S'r\xf5 ;'
p1727
tp1728
Rp1729
ag1
(g5
S'\x86\xd3!;'
p1730
tp1731
Rp1732
ag1
(g5
S'\xa28:;'
p1733
tp1734
Rp1735
ag1
(g5
S'\xc3\x07\x1d;'
p1736
tp1737
Rp1738
ag1
(g5
S'\xef\xa7%;'
p1739
tp1740
Rp1741
ag1
(g5
S'\x0c\xde$;'
p1742
tp1743
Rp1744
ag1
(g5
S'\xfc\xfb\x1c;'
p1745
tp1746
Rp1747
ag1
(g5
S'~&\x1c;'
p1748
tp1749
Rp1750
ag1
(g5
S"\xf9Z';"
p1751
tp1752
Rp1753
ag1
(g5
S'~\xfb\x1c;'
p1754
tp1755
Rp1756
ag1
(g5
S'\x05\x1d\x1a;'
p1757
tp1758
Rp1759
ag1
(g5
S'\xe2\x9c\x1b;'
p1760
tp1761
Rp1762
ag1
(g5
S'R\x10\x19;'
p1763
tp1764
Rp1765
ag1
(g5
S'\xf8\x1a\x11;'
p1766
tp1767
Rp1768
ag1
(g5
S'\x11!\x15;'
p1769
tp1770
Rp1771
ag1
(g5
S'\x94H\xe0<'
p1772
tp1773
Rp1774
ag1
(g5
S'\x96(\xe3<'
p1775
tp1776
Rp1777
ag1
(g5
S'\xde\x98\xa0<'
p1778
tp1779
Rp1780
ag1
(g5
S'\x06|\x89<'
p1781
tp1782
Rp1783
ag1
(g5
S'\x0f\xe5\x84<'
p1784
tp1785
Rp1786
ag1
(g5
S'\x0fxs<'
p1787
tp1788
Rp1789
ag1
(g5
S'\xca\x9aV<'
p1790
tp1791
Rp1792
ag1
(g5
S'\t\\f<'
p1793
tp1794
Rp1795
ag1
(g5
S'\x85%k<'
p1796
tp1797
Rp1798
ag1
(g5
S'\xf3\xdfj<'
p1799
tp1800
Rp1801
ag1
(g5
S'v\xe9l<'
p1802
tp1803
Rp1804
ag1
(g5
S'f\x8aW<'
p1805
tp1806
Rp1807
ag1
(g5
S'\x9cU\n='
p1808
tp1809
Rp1810
ag1
(g5
S'.m\xdb<'
p1811
tp1812
Rp1813
ag1
(g5
S'\xae\x86\x99<'
p1814
tp1815
Rp1816
ag1
(g5
S'\xa4\x88\x94<'
p1817
tp1818
Rp1819
ag1
(g5
S'BY\xbb<'
p1820
tp1821
Rp1822
ag1
(g5
S'G5\xd1<'
p1823
tp1824
Rp1825
ag1
(g5
S'#\x8b\xc4<'
p1826
tp1827
Rp1828
ag1
(g5
S'\xc6o\x9f<'
p1829
tp1830
Rp1831
ag1
(g5
S'\x7f\xb7\x88<'
p1832
tp1833
Rp1834
ag1
(g5
S'J\x9f\x99<'
p1835
tp1836
Rp1837
ag1
(g5
S'\xbeR\xa9<'
p1838
tp1839
Rp1840
ag1
(g5
S'\xf1~\xa7<'
p1841
tp1842
Rp1843
ag1
(g5
S'\x18\x87\xa9<'
p1844
tp1845
Rp1846
ag1
(g5
S'\xc2\x9b\x9b<'
p1847
tp1848
Rp1849
ag1
(g5
S'@\xcf\x8f<'
p1850
tp1851
Rp1852
ag1
(g5
S'u\xff\x8a<'
p1853
tp1854
Rp1855
ag1
(g5
S'\x02\x0c\x8f<'
p1856
tp1857
Rp1858
ag1
(g5
S'\xcdZ\x94<'
p1859
tp1860
Rp1861
ag1
(g5
S'\xecg\x94<'
p1862
tp1863
Rp1864
ag1
(g5
S'7\xd6\x90<'
p1865
tp1866
Rp1867
ag1
(g5
S'D\xae\x8c<'
p1868
tp1869
Rp1870
ag1
(g5
S'*\xfa\x8b<'
p1871
tp1872
Rp1873
ag1
(g5
S'\x01\xae\x89<'
p1874
tp1875
Rp1876
ag1
(g5
S'\x08]\x8b<'
p1877
tp1878
Rp1879
ag1
(g5
S'\x99\xaf\x84<'
p1880
tp1881
Rp1882
ag1
(g5
S'\x83\xbd\x8b<'
p1883
tp1884
Rp1885
ag1
(g5
S'Nk\x87<'
p1886
tp1887
Rp1888
ag1
(g5
S'kV\x82<'
p1889
tp1890
Rp1891
ag1
(g5
S'\x0c\xc7\x83<'
p1892
tp1893
Rp1894
ag1
(g5
S'B\xd0\x83<'
p1895
tp1896
Rp1897
ag1
(g5
S'J\xe8\x84<'
p1898
tp1899
Rp1900
ag1
(g5
S'C\xa3\x86<'
p1901
tp1902
Rp1903
ag1
(g5
S'\xdcL\x8f<'
p1904
tp1905
Rp1906
ag1
(g5
S'\xa4\x1b\x88<'
p1907
tp1908
Rp1909
ag1
(g5
S'\xe1\x81\x82<'
p1910
tp1911
Rp1912
ag1
(g5
S'\x87\xea}<'
p1913
tp1914
Rp1915
ag1
(g5
S'\xd9\xae}<'
p1916
tp1917
Rp1918
ag1
(g5
S'\xd4:x<'
p1919
tp1920
Rp1921
ag1
(g5
S'\xda\xeff<'
p1922
tp1923
Rp1924
ag1
(g5
S'\xca\xb0\x83<'
p1925
tp1926
Rp1927
ag1
(g5
S'\x00<x<'
p1928
tp1929
Rp1930
ag1
(g5
S'\xcf\x12}<'
p1931
tp1932
Rp1933
ag1
(g5
S'\xc3\xdc\x85<'
p1934
tp1935
Rp1936
ag1
(g5
S'\xbd\x90q<'
p1937
tp1938
Rp1939
ag1
(g5
S'?&\x81<'
p1940
tp1941
Rp1942
ag1
(g5
S'g\tv<'
p1943
tp1944
Rp1945
ag1
(g5
S'D\xc8j<'
p1946
tp1947
Rp1948
ag1
(g5
S'\x81\x88x<'
p1949
tp1950
Rp1951
ag1
(g5
S'\x94\xbd\xf3;'
p1952
tp1953
Rp1954
ag1
(g5
S'Kx\xec;'
p1955
tp1956
Rp1957
ag1
(g5
S'\x8fP\xe6;'
p1958
tp1959
Rp1960
ag1
(g5
S'\x0e\xd1\xb9;'
p1961
tp1962
Rp1963
ag1
(g5
S'\xe5\x98\xb1;'
p1964
tp1965
Rp1966
ag1
(g5
S'r\xe0\xb0;'
p1967
tp1968
Rp1969
ag1
(g5
S'\xda\x9f\xb6;'
p1970
tp1971
Rp1972
ag1
(g5
S'r\xb3\xd5;'
p1973
tp1974
Rp1975
ag1
(g5
S'K\xee\xbb;'
p1976
tp1977
Rp1978
ag1
(g5
S'\xd0\xcb\xaa;'
p1979
tp1980
Rp1981
ag1
(g5
S'R\xc9\xc7;'
p1982
tp1983
Rp1984
ag1
(g5
S'\x12\x98\xc1;'
p1985
tp1986
Rp1987
ag1
(g5
S'z\xc4k;'
p1988
tp1989
Rp1990
ag1
(g5
S'>Bp;'
p1991
tp1992
Rp1993
ag1
(g5
S'f\xd6L;'
p1994
tp1995
Rp1996
ag1
(g5
S'x\xbf.;'
p1997
tp1998
Rp1999
ag1
(g5
S'\x89+$;'
p2000
tp2001
Rp2002
ag1
(g5
S'-D\x1f;'
p2003
tp2004
Rp2005
ag1
(g5
S'B\x9a#;'
p2006
tp2007
Rp2008
ag1
(g5
S'\xf2c-;'
p2009
tp2010
Rp2011
ag1
(g5
S'F\xbd@;'
p2012
tp2013
Rp2014
ag1
(g5
S'\xd6\xad,;'
p2015
tp2016
Rp2017
ag1
(g5
S'\xe2\xec,;'
p2018
tp2019
Rp2020
ag1
(g5
S'(\x02\x16;'
p2021
tp2022
Rp2023
ag1
(g5
S'`f\x03<'
p2024
tp2025
Rp2026
ag1
(g5
S'\x82\xca\x16<'
p2027
tp2028
Rp2029
ag1
(g5
S'\xec_\xe3;'
p2030
tp2031
Rp2032
ag1
(g5
S'\xc0|\xee;'
p2033
tp2034
Rp2035
ag1
(g5
S'\xbf\xde\x02<'
p2036
tp2037
Rp2038
ag1
(g5
S'.\x88\x1b<'
p2039
tp2040
Rp2041
ag1
(g5
S'Tx\x05<'
p2042
tp2043
Rp2044
ag1
(g5
S'\xa2\x16\x07<'
p2045
tp2046
Rp2047
ag1
(g5
S'\xfa@\n<'
p2048
tp2049
Rp2050
ag1
(g5
S'>?\x06<'
p2051
tp2052
Rp2053
ag1
(g5
S',9\x13<'
p2054
tp2055
Rp2056
ag1
(g5
S'\x00\x08\xa3;'
p2057
tp2058
Rp2059
ag1
(g5
S'k\xbdA<'
p2060
tp2061
Rp2062
ag1
(g5
S'2U=<'
p2063
tp2064
Rp2065
ag1
(g5
S'\xaegC<'
p2066
tp2067
Rp2068
ag1
(g5
S'+\xab5<'
p2069
tp2070
Rp2071
ag1
(g5
S'o\x0f@<'
p2072
tp2073
Rp2074
ag1
(g5
S'\xd7V7<'
p2075
tp2076
Rp2077
ag1
(g5
S'\xe5?+<'
p2078
tp2079
Rp2080
ag1
(g5
S'&&4<'
p2081
tp2082
Rp2083
ag1
(g5
S'\x99_E<'
p2084
tp2085
Rp2086
ag1
(g5
S'E\x132<'
p2087
tp2088
Rp2089
ag1
(g5
S'+\x00@<'
p2090
tp2091
Rp2092
ag1
(g5
S'\xf1`+<'
p2093
tp2094
Rp2095
ag1
(g5
S'>\x1d,<'
p2096
tp2097
Rp2098
ag1
(g5
S'6\x15E<'
p2099
tp2100
Rp2101
ag1
(g5
S'\xb5%2<'
p2102
tp2103
Rp2104
ag1
(g5
S'?YE<'
p2105
tp2106
Rp2107
ag1
(g5
S'%\x15D<'
p2108
tp2109
Rp2110
ag1
(g5
S'\xbd\xca0<'
p2111
tp2112
Rp2113
ag1
(g5
S'\xf4\xf4<<'
p2114
tp2115
Rp2116
ag1
(g5
S'\xa0IF<'
p2117
tp2118
Rp2119
ag1
(g5
S'\x1dtE<'
p2120
tp2121
Rp2122
ag1
(g5
S'NyJ<'
p2123
tp2124
Rp2125
ag1
(g5
S'\xb2\xa7;<'
p2126
tp2127
Rp2128
ag1
(g5
S'*yD<'
p2129
tp2130
Rp2131
ag1
(g5
S'Hj\x19<'
p2132
tp2133
Rp2134
ag1
(g5
S'nn\x12<'
p2135
tp2136
Rp2137
ag1
(g5
S'a\xcc2<'
p2138
tp2139
Rp2140
ag1
(g5
S'B\xd0$<'
p2141
tp2142
Rp2143
ag1
(g5
S'\x92\x83 <'
p2144
tp2145
Rp2146
ag1
(g5
S'M\x13\x1b<'
p2147
tp2148
Rp2149
ag1
(g5
S'\xfe\x15\x1d<'
p2150
tp2151
Rp2152
ag1
(g5
S'\xb0\x9d\x1a<'
p2153
tp2154
Rp2155
ag1
(g5
S'\xa9\xa4\x1e<'
p2156
tp2157
Rp2158
ag1
(g5
S'\x8e\xc3\x15<'
p2159
tp2160
Rp2161
ag1
(g5
S'o\xf8\x1d<'
p2162
tp2163
Rp2164
ag1
(g5
S'Y.\x1d<'
p2165
tp2166
Rp2167
ag1
(g5
S'\xa6\x81\x1a<'
p2168
tp2169
Rp2170
ag1
(g5
S'\x84\xd7#<'
p2171
tp2172
Rp2173
ag1
(g5
S'\x0e\xf3\x1d<'
p2174
tp2175
Rp2176
ag1
(g5
S'\x1b\xce\x0f<'
p2177
tp2178
Rp2179
ag1
(g5
S'\xbe\xe2\x1c<'
p2180
tp2181
Rp2182
ag1
(g5
S'\x1aA\x1b<'
p2183
tp2184
Rp2185
ag1
(g5
S'\xfc\x9d\x10<'
p2186
tp2187
Rp2188
ag1
(g5
S'[{#<'
p2189
tp2190
Rp2191
ag1
(g5
S'\xa6\xd7\x17<'
p2192
tp2193
Rp2194
ag1
(g5
S'\x80\xb0\x1b<'
p2195
tp2196
Rp2197
ag1
(g5
S't\xad <'
p2198
tp2199
Rp2200
ag1
(g5
S'$a\x10<'
p2201
tp2202
Rp2203
ag1
(g5
S'\x12M\xf6;'
p2204
tp2205
Rp2206
ag1
(g5
S'\xc3\xa4\xfd;'
p2207
tp2208
Rp2209
ag1
(g5
S'\xda\xa6\x0f<'
p2210
tp2211
Rp2212
ag1
(g5
S' \x1d\xe8;'
p2213
tp2214
Rp2215
ag1
(g5
S'"*\x06<'
p2216
tp2217
Rp2218
ag1
(g5
S'\x01\x1f\xf2;'
p2219
tp2220
Rp2221
ag1
(g5
S'\xe2\x1d\x05<'
p2222
tp2223
Rp2224
ag1
(g5
S'A`\xf3;'
p2225
tp2226
Rp2227
ag1
(g5
S'\x88\xe4\x02<'
p2228
tp2229
Rp2230
ag1
(g5
S'\xf2\x02\xf6;'
p2231
tp2232
Rp2233
ag1
(g5
S'Y_\x04<'
p2234
tp2235
Rp2236
ag1
(g5
S'\xac\x86\xeb;'
p2237
tp2238
Rp2239
ag1
(g5
S'\xce[\x02<'
p2240
tp2241
Rp2242
ag1
(g5
S'j]\xf4;'
p2243
tp2244
Rp2245
ag1
(g5
S'\x9a\x07\xfc;'
p2246
tp2247
Rp2248
ag1
(g5
S'4p\x00<'
p2249
tp2250
Rp2251
ag1
(g5
S'U!\x0b<'
p2252
tp2253
Rp2254
ag1
(g5
S'_\x05\x04<'
p2255
tp2256
Rp2257
ag1
(g5
S';\xa8\x02<'
p2258
tp2259
Rp2260
ag1
(g5
S'_\xd1\x0c<'
p2261
tp2262
Rp2263
ag1
(g5
S'\x81\xed\r<'
p2264
tp2265
Rp2266
ag1
(g5
S'\xdc\x00\x05<'
p2267
tp2268
Rp2269
ag1
(g5
S'\r"\x07<'
p2270
tp2271
Rp2272
ag1
(g5
S'\x96\xd7\xd5;'
p2273
tp2274
Rp2275
ag1
(g5
S'4\x9e\xf0;'
p2276
tp2277
Rp2278
ag1
(g5
S'\xab\xb5\x00<'
p2279
tp2280
Rp2281
ag1
(g5
S'<V\x07<'
p2282
tp2283
Rp2284
ag1
(g5
S'&O\x12<'
p2285
tp2286
Rp2287
ag1
(g5
S'W\x94\xec;'
p2288
tp2289
Rp2290
ag1
(g5
S'\xb0+\xf9;'
p2291
tp2292
Rp2293
ag1
(g5
S'g\x9e\x02<'
p2294
tp2295
Rp2296
ag1
(g5
S"\xac'\x05<"
p2297
tp2298
Rp2299
ag1
(g5
S'0\x87\x08<'
p2300
tp2301
Rp2302
ag1
(g5
S'\xb2\xd8\xfa;'
p2303
tp2304
Rp2305
ag1
(g5
S'\xec\xaa\x04<'
p2306
tp2307
Rp2308
ag1
(g5
S'\xa4\xeb,<'
p2309
tp2310
Rp2311
ag1
(g5
S'C\xaf\xe4;'
p2312
tp2313
Rp2314
ag1
(g5
S'\x9d\x0f\xf8;'
p2315
tp2316
Rp2317
ag1
(g5
S'r\x83\xf7;'
p2318
tp2319
Rp2320
ag1
(g5
S' \xe1\xe5;'
p2321
tp2322
Rp2323
ag1
(g5
S'\xb3%\xee;'
p2324
tp2325
Rp2326
ag1
(g5
S'Y\xd1\xe3;'
p2327
tp2328
Rp2329
ag1
(g5
S'c\x97\xef;'
p2330
tp2331
Rp2332
ag1
(g5
S'J{\x00<'
p2333
tp2334
Rp2335
ag1
(g5
S'\x1e\t\xef;'
p2336
tp2337
Rp2338
ag1
(g5
S'\x9c\x07\xdc;'
p2339
tp2340
Rp2341
ag1
(g5
S'\x0e\xb5\xea;'
p2342
tp2343
Rp2344
ag1
(g5
S'\xac\xab\xda;'
p2345
tp2346
Rp2347
ag1
(g5
S'e\xd7\xed;'
p2348
tp2349
Rp2350
ag1
(g5
S'\xba\x89\xd1;'
p2351
tp2352
Rp2353
ag1
(g5
S'\xa6\xab\xf7;'
p2354
tp2355
Rp2356
ag1
(g5
S'\x1d\xce\xd5;'
p2357
tp2358
Rp2359
ag1
(g5
S'c\x9a\xfc;'
p2360
tp2361
Rp2362
ag1
(g5
S'\xf9Z\xfa;'
p2363
tp2364
Rp2365
ag1
(g5
S'I\x0b\xec;'
p2366
tp2367
Rp2368
ag1
(g5
S'\xb4V\xe9;'
p2369
tp2370
Rp2371
ag1
(g5
S'7\t\xee;'
p2372
tp2373
Rp2374
ag1
(g5
S'F\xf4\xe7;'
p2375
tp2376
Rp2377
ag1
(g5
S'\x9b\x03\xf4;'
p2378
tp2379
Rp2380
ag1
(g5
S'\xf2\x97\x01<'
p2381
tp2382
Rp2383
ag1
(g5
S'\xc4\xdb\xdb;'
p2384
tp2385
Rp2386
ag1
(g5
S'\x9ey\xf1;'
p2387
tp2388
Rp2389
ag1
(g5
S'R\x8a\xe6;'
p2390
tp2391
Rp2392
ag1
(g5
S'\x12W\x00<'
p2393
tp2394
Rp2395
ag1
(g5
S'\x0e\xd4\xfe;'
p2396
tp2397
Rp2398
ag1
(g5
S'\xd2\xbd\xd4;'
p2399
tp2400
Rp2401
ag1
(g5
S'\xf23\xf0;'
p2402
tp2403
Rp2404
ag1
(g5
S'\xb2\xe7\xf8;'
p2405
tp2406
Rp2407
ag1
(g5
S'a\xa3\xe6;'
p2408
tp2409
Rp2410
ag1
(g5
S'\x02\xf0\xeb;'
p2411
tp2412
Rp2413
ag1
(g5
S'4\xc1\xfa;'
p2414
tp2415
Rp2416
ag1
(g5
S'\xa0@\xd8;'
p2417
tp2418
Rp2419
ag1
(g5
S'/\r\xcf;'
p2420
tp2421
Rp2422
ag1
(g5
S'x\x8c\xe3;'
p2423
tp2424
Rp2425
ag1
(g5
S'DO\xc0;'
p2426
tp2427
Rp2428
ag1
(g5
S'\x1a\xc9\xcc;'
p2429
tp2430
Rp2431
ag1
(g5
S'=v\xe2;'
p2432
tp2433
Rp2434
ag1
(g5
S'\xf5\xf8\xe1;'
p2435
tp2436
Rp2437
ag1
(g5
S'\xed+\xe0;'
p2438
tp2439
Rp2440
ag1
(g5
S'\xad\xd5\xca;'
p2441
tp2442
Rp2443
ag1
(g5
S'\x85F\xdb;'
p2444
tp2445
Rp2446
ag1
(g5
S'\xbc4\xd6;'
p2447
tp2448
Rp2449
ag1
(g5
S'!R\xe7;'
p2450
tp2451
Rp2452
ag1
(g5
S'\xa3W\xea;'
p2453
tp2454
Rp2455
ag1
(g5
S'\xf5\xed\xe0;'
p2456
tp2457
Rp2458
ag1
(g5
S'@\x06\xda;'
p2459
tp2460
Rp2461
ag1
(g5
S'\xd6\xc1\xe4;'
p2462
tp2463
Rp2464
ag1
(g5
S'\xd0?\xf3;'
p2465
tp2466
Rp2467
ag1
(g5
S'\x19\xd0\xea;'
p2468
tp2469
Rp2470
ag1
(g5
S'\xb8\xce\xdb;'
p2471
tp2472
Rp2473
ag1
(g5
S'.\x81\xda;'
p2474
tp2475
Rp2476
ag1
(g5
S'=\x17\xe4;'
p2477
tp2478
Rp2479
ag1
(g5
S'\xa3\x19\xd2;'
p2480
tp2481
Rp2482
ag1
(g5
S'}\xa1\xe7;'
p2483
tp2484
Rp2485
ag1
(g5
S'\x8f\xbe\xe0;'
p2486
tp2487
Rp2488
ag1
(g5
S'\x1aK\xdd;'
p2489
tp2490
Rp2491
ag1
(g5
S'\xd4\xb6\x06<'
p2492
tp2493
Rp2494
ag1
(g5
S'd}\xeb;'
p2495
tp2496
Rp2497
ag1
(g5
S'8\x92\xf5;'
p2498
tp2499
Rp2500
ag1
(g5
S'h\x87\x04<'
p2501
tp2502
Rp2503
ag1
(g5
S'\xac\x86\xf5;'
p2504
tp2505
Rp2506
ag1
(g5
S'\xda\xd4\x00<'
p2507
tp2508
Rp2509
ag1
(g5
S'\xb8\xe0\xed;'
p2510
tp2511
Rp2512
ag1
(g5
S'gO\x04<'
p2513
tp2514
Rp2515
ag1
(g5
S'\xcfm\xf5;'
p2516
tp2517
Rp2518
ag1
(g5
S'\x05\xb3\x01<'
p2519
tp2520
Rp2521
ag1
(g5
S'\xc8\xe5\x00<'
p2522
tp2523
Rp2524
ag1
(g5
S'\x90}\xf0;'
p2525
tp2526
Rp2527
ag1
(g5
S'N\x04\xca;'
p2528
tp2529
Rp2530
ag1
(g5
S'\xedT\xcb;'
p2531
tp2532
Rp2533
ag1
(g5
S'\xa8\xc6\xd5;'
p2534
tp2535
Rp2536
ag1
(g5
S'\x8a0\xd4;'
p2537
tp2538
Rp2539
ag1
(g5
S'=\xf1\xc6;'
p2540
tp2541
Rp2542
ag1
(g5
S'j\xd6\xbf;'
p2543
tp2544
Rp2545
ag1
(g5
S'~\xf4\xcf;'
p2546
tp2547
Rp2548
ag1
(g5
S'\x1c\x02\xc6;'
p2549
tp2550
Rp2551
ag1
(g5
S'\xac\xbf\xcf;'
p2552
tp2553
Rp2554
ag1
(g5
S']\x11\xcc;'
p2555
tp2556
Rp2557
ag1
(g5
S'\xbe%\xbb;'
p2558
tp2559
Rp2560
ag1
(g5
S'\xc0\xb5\xbd;'
p2561
tp2562
Rp2563
ag1
(g5
S'?n\xc9;'
p2564
tp2565
Rp2566
ag1
(g5
S'\xfc\xbe\xd0;'
p2567
tp2568
Rp2569
ag1
(g5
S'.y\xd6;'
p2570
tp2571
Rp2572
ag1
(g5
S'L\xb2\xde;'
p2573
tp2574
Rp2575
ag1
(g5
S'<v\xde;'
p2576
tp2577
Rp2578
ag1
(g5
S'\xb0\x15\xde;'
p2579
tp2580
Rp2581
ag1
(g5
S'2>\xcd;'
p2582
tp2583
Rp2584
ag1
(g5
S'n\x93\xc9;'
p2585
tp2586
Rp2587
ag1
(g5
S'\xabe\xd8;'
p2588
tp2589
Rp2590
ag1
(g5
S'\x06\x08\xd5;'
p2591
tp2592
Rp2593
ag1
(g5
S'+8\xd9;'
p2594
tp2595
Rp2596
ag1
(g5
S'OF\xd5;'
p2597
tp2598
Rp2599
ag1
(g5
S'\x81\x9b\xb7;'
p2600
tp2601
Rp2602
ag1
(g5
S'\x08\xc0\xca;'
p2603
tp2604
Rp2605
ag1
(g5
S'\xf6X\xdd;'
p2606
tp2607
Rp2608
ag1
(g5
S'\x96\xea\xc3;'
p2609
tp2610
Rp2611
ag1
(g5
S'\x92\xcf\xbe;'
p2612
tp2613
Rp2614
ag1
(g5
S'\x8e2\xb3;'
p2615
tp2616
Rp2617
ag1
(g5
S'\xa4\x8d\xc0;'
p2618
tp2619
Rp2620
ag1
(g5
S'\t\x03\xc2;'
p2621
tp2622
Rp2623
ag1
(g5
S'\x08\x90\xb3;'
p2624
tp2625
Rp2626
ag1
(g5
S'\x1a\xce\xbb;'
p2627
tp2628
Rp2629
ag1
(g5
S'\xc3g\xc1;'
p2630
tp2631
Rp2632
ag1
(g5
S'\x15\xda\xb6;'
p2633
tp2634
Rp2635
ag1
(g5
S'b\xc0(<'
p2636
tp2637
Rp2638
ag1
(g5
S'\xc3\xa6 <'
p2639
tp2640
Rp2641
ag1
(g5
S'\xcb\xab=<'
p2642
tp2643
Rp2644
ag1
(g5
S'\x83\x16\x1e<'
p2645
tp2646
Rp2647
ag1
(g5
S'\xd4 7<'
p2648
tp2649
Rp2650
ag1
(g5
S'\x08,!<'
p2651
tp2652
Rp2653
ag1
(g5
S'\xc9\xeeE<'
p2654
tp2655
Rp2656
ag1
(g5
S'\\\x8f:<'
p2657
tp2658
Rp2659
ag1
(g5
S'\x0e\xee<<'
p2660
tp2661
Rp2662
ag1
(g5
S'\xc9\xfa7<'
p2663
tp2664
Rp2665
ag1
(g5
S'z\x1f,<'
p2666
tp2667
Rp2668
ag1
(g5
S'\x9c\xfcH<'
p2669
tp2670
Rp2671
ag1
(g5
S'\xd7\rw<'
p2672
tp2673
Rp2674
ag1
(g5
S'd.n<'
p2675
tp2676
Rp2677
ag1
(g5
S'^<m<'
p2678
tp2679
Rp2680
ag1
(g5
S'\xfe\xf1l<'
p2681
tp2682
Rp2683
ag1
(g5
S'\x173h<'
p2684
tp2685
Rp2686
ag1
(g5
S'\xda\xcbv<'
p2687
tp2688
Rp2689
ag1
(g5
S'q\x0fs<'
p2690
tp2691
Rp2692
ag1
(g5
S'\xb26j<'
p2693
tp2694
Rp2695
ag1
(g5
S'<-j<'
p2696
tp2697
Rp2698
ag1
(g5
S'\x94\xbas<'
p2699
tp2700
Rp2701
ag1
(g5
S'\xa9*f<'
p2702
tp2703
Rp2704
ag1
(g5
S'b\xae\x80<'
p2705
tp2706
Rp2707
ag1
(g5
S'6a;;'
p2708
tp2709
Rp2710
ag1
(g5
S'&~+;'
p2711
tp2712
Rp2713
ag1
(g5
S'\x1e\x9e ;'
p2714
tp2715
Rp2716
ag1
(g5
S'\x8e\x0e1;'
p2717
tp2718
Rp2719
ag1
(g5
S'\x8f&);'
p2720
tp2721
Rp2722
ag1
(g5
S'\xef\x9a);'
p2723
tp2724
Rp2725
ag1
(g5
S'\xdd\xd05;'
p2726
tp2727
Rp2728
ag1
(g5
S'\t\xb3+;'
p2729
tp2730
Rp2731
ag1
(g5
S'\xa8\xcb);'
p2732
tp2733
Rp2734
ag1
(g5
S'V\x8a0;'
p2735
tp2736
Rp2737
ag1
(g5
S'\x8a\xbb+;'
p2738
tp2739
Rp2740
ag1
(g5
S'):@;'
p2741
tp2742
Rp2743
ag1
(g5
S'\xfa\x9f\x1d<'
p2744
tp2745
Rp2746
ag1
(g5
S'qR\x11<'
p2747
tp2748
Rp2749
ag1
(g5
S'\x84-\xfd;'
p2750
tp2751
Rp2752
ag1
(g5
S'\xcf\x03\xde;'
p2753
tp2754
Rp2755
ag1
(g5
S'\xf4\x9e\x05<'
p2756
tp2757
Rp2758
ag1
(g5
S'\xc2\x95\x05<'
p2759
tp2760
Rp2761
ag1
(g5
S'\x96\x82\t<'
p2762
tp2763
Rp2764
ag1
(g5
S'Pn\x0e<'
p2765
tp2766
Rp2767
ag1
(g5
S'\x0eB\x07<'
p2768
tp2769
Rp2770
ag1
(g5
S'\x16.\x0f<'
p2771
tp2772
Rp2773
ag1
(g5
S'h\xe2\x07<'
p2774
tp2775
Rp2776
ag1
(g5
S'\xaeh\x1a<'
p2777
tp2778
Rp2779
ag1
(g5
S'\xba\xe9\x1d<'
p2780
tp2781
Rp2782
ag1
(g5
S'\x91\xd4,<'
p2783
tp2784
Rp2785
ag1
(g5
S'T\x93-<'
p2786
tp2787
Rp2788
ag1
(g5
S'\xbd\xd9+<'
p2789
tp2790
Rp2791
ag1
(g5
S"\x7f\x0e'<"
p2792
tp2793
Rp2794
ag1
(g5
S'\x8e%)<'
p2795
tp2796
Rp2797
ag1
(g5
S'\xf6\xdc+<'
p2798
tp2799
Rp2800
ag1
(g5
S'>m%<'
p2801
tp2802
Rp2803
ag1
(g5
S'^^\x1e<'
p2804
tp2805
Rp2806
ag1
(g5
S"~W'<"
p2807
tp2808
Rp2809
ag1
(g5
S":f'<"
p2810
tp2811
Rp2812
ag1
(g5
S'$\x85*<'
p2813
tp2814
Rp2815
ag1
(g5
S'\x0cX#<'
p2816
tp2817
Rp2818
ag1
(g5
S'\xdf\xed\x10<'
p2819
tp2820
Rp2821
ag1
(g5
S'\x0c2\x1e<'
p2822
tp2823
Rp2824
ag1
(g5
S'\x94*\x1d<'
p2825
tp2826
Rp2827
ag1
(g5
S'\xd9\xa0\x13<'
p2828
tp2829
Rp2830
ag1
(g5
S'\x10\xca\x0f<'
p2831
tp2832
Rp2833
ag1
(g5
S']\x13\x19<'
p2834
tp2835
Rp2836
ag1
(g5
S'\xa6\x9c\x1a<'
p2837
tp2838
Rp2839
ag1
(g5
S'\xcc\xac\x11<'
p2840
tp2841
Rp2842
ag1
(g5
S'[\x90)<'
p2843
tp2844
Rp2845
ag1
(g5
S'(\xdf!<'
p2846
tp2847
Rp2848
ag1
(g5
S'tO\x16<'
p2849
tp2850
Rp2851
ag1
(g5
S'\xf9^,<'
p2852
tp2853
Rp2854
ag1
(g5
S'NQ\x18<'
p2855
tp2856
Rp2857
ag1
(g5
S'\xfc\xad\x17<'
p2858
tp2859
Rp2860
ag1
(g5
S'*\xf4\x1c<'
p2861
tp2862
Rp2863
ag1
(g5
S'\x8c9\x18<'
p2864
tp2865
Rp2866
ag1
(g5
S'\x96\xbc\x11<'
p2867
tp2868
Rp2869
ag1
(g5
S'\xda\x95\x15<'
p2870
tp2871
Rp2872
ag1
(g5
S',\x7f\x11<'
p2873
tp2874
Rp2875
ag1
(g5
S'\\\x0b\x19<'
p2876
tp2877
Rp2878
ag1
(g5
S'\x1df$<'
p2879
tp2880
Rp2881
ag1
(g5
S'\x8e\xf4\x16<'
p2882
tp2883
Rp2884
ag1
(g5
S'\xef\xa4\x15<'
p2885
tp2886
Rp2887
ag1
(g5
S'$+\x10<'
p2888
tp2889
Rp2890
ag1
(g5
S'q\xeb\x19<'
p2891
tp2892
Rp2893
ag1
(g5
S'\x14\xa1\x17<'
p2894
tp2895
Rp2896
ag1
(g5
S'i("<'
p2897
tp2898
Rp2899
ag1
(g5
S'H} <'
p2900
tp2901
Rp2902
ag1
(g5
S'\x0b\n\x1c<'
p2903
tp2904
Rp2905
ag1
(g5
S'\x81\xfb\x1a<'
p2906
tp2907
Rp2908
ag1
(g5
S'&\xe4\x13<'
p2909
tp2910
Rp2911
ag1
(g5
S'\xd53#<'
p2912
tp2913
Rp2914
ag1
(g5
S'\x93\x88\x16<'
p2915
tp2916
Rp2917
ag1
(g5
S'\xa8\x08+<'
p2918
tp2919
Rp2920
ag1
(g5
S'\x86(%<'
p2921
tp2922
Rp2923
ag1
(g5
S'Va\x0f<'
p2924
tp2925
Rp2926
ag1
(g5
S'\xa7\x81\x0f<'
p2927
tp2928
Rp2929
ag1
(g5
S'v\xe0\x04<'
p2930
tp2931
Rp2932
ag1
(g5
S'\xfa\xeb\t<'
p2933
tp2934
Rp2935
ag1
(g5
S'\x8e\x1a\x00<'
p2936
tp2937
Rp2938
ag1
(g5
S'\x89\xba\r<'
p2939
tp2940
Rp2941
ag1
(g5
S'\xdeZ\x07<'
p2942
tp2943
Rp2944
ag1
(g5
S'\x07t\n<'
p2945
tp2946
Rp2947
ag1
(g5
S'"\r\x0e<'
p2948
tp2949
Rp2950
ag1
(g5
S'*\xed\x0f<'
p2951
tp2952
Rp2953
ag1
(g5
S'\x1f^\n<'
p2954
tp2955
Rp2956
ag1
(g5
S'\x84\xd3\x01<'
p2957
tp2958
Rp2959
ag1
(g5
S'q|\x14<'
p2960
tp2961
Rp2962
ag1
(g5
S'\x03\x0b\x12<'
p2963
tp2964
Rp2965
ag1
(g5
S'}C\x12<'
p2966
tp2967
Rp2968
ag1
(g5
S'1\xb4\n<'
p2969
tp2970
Rp2971
ag1
(g5
S'Ku\r<'
p2972
tp2973
Rp2974
ag1
(g5
S'\xde\xb3\r<'
p2975
tp2976
Rp2977
ag1
(g5
S'\xad\xa8\x03<'
p2978
tp2979
Rp2980
ag1
(g5
S'\xde\xe1\t<'
p2981
tp2982
Rp2983
ag1
(g5
S'\xb8\x9c\x04<'
p2984
tp2985
Rp2986
ag1
(g5
S'\xdb\x0c\t<'
p2987
tp2988
Rp2989
ag1
(g5
S'\xde\x04\x0f<'
p2990
tp2991
Rp2992
ag1
(g5
S'dH\t<'
p2993
tp2994
Rp2995
ag1
(g5
S'a\xab\t<'
p2996
tp2997
Rp2998
ag1
(g5
S'\xb9Y\x04<'
p2999
tp3000
Rp3001
ag1
(g5
S'\x18\x1d\x01<'
p3002
tp3003
Rp3004
ag1
(g5
S'n=\xfd;'
p3005
tp3006
Rp3007
ag1
(g5
S'\xc4\x12\r<'
p3008
tp3009
Rp3010
ag1
(g5
S'\xcdH\x0b<'
p3011
tp3012
Rp3013
ag1
(g5
S'\xae\x1d\t<'
p3014
tp3015
Rp3016
ag1
(g5
S'\x10\x8f\x03<'
p3017
tp3018
Rp3019
ag1
(g5
S'\xb5\xde\x0c<'
p3020
tp3021
Rp3022
ag1
(g5
S'\x8c\xd7\xfa;'
p3023
tp3024
Rp3025
ag1
(g5
S'\x7f\xb5\x0e<'
p3026
tp3027
Rp3028
ag1
(g5
S'8\x1b\x01<'
p3029
tp3030
Rp3031
ag1
(g5
S'\xdf|\xf9;'
p3032
tp3033
Rp3034
ag1
(g5
S'\x9fJ\xf3;'
p3035
tp3036
Rp3037
ag1
(g5
S'|\x0c\x0e<'
p3038
tp3039
Rp3040
ag1
(g5
S'[p\n<'
p3041
tp3042
Rp3043
ag1
(g5
S'\xae.\x01<'
p3044
tp3045
Rp3046
ag1
(g5
S'6$\xf7;'
p3047
tp3048
Rp3049
ag1
(g5
S'\xa4\xf5\x00<'
p3050
tp3051
Rp3052
ag1
(g5
S'[p\x02<'
p3053
tp3054
Rp3055
ag1
(g5
S'\x87\xe9\x03<'
p3056
tp3057
Rp3058
ag1
(g5
S'\xf5\x00\xf2;'
p3059
tp3060
Rp3061
ag1
(g5
S'\x06\x07\x05<'
p3062
tp3063
Rp3064
ag1
(g5
S'\x8c\xd9\r<'
p3065
tp3066
Rp3067
ag1
(g5
S'?\xb6\xe5;'
p3068
tp3069
Rp3070
ag1
(g5
S'C\xf6\xfd;'
p3071
tp3072
Rp3073
ag1
(g5
S'a=\xf6;'
p3074
tp3075
Rp3076
ag1
(g5
S'F`\xf3;'
p3077
tp3078
Rp3079
ag1
(g5
S'{\x0c\x0c<'
p3080
tp3081
Rp3082
ag1
(g5
S'\xacT\xe9;'
p3083
tp3084
Rp3085
ag1
(g5
S'\x04]\xfd;'
p3086
tp3087
Rp3088
ag1
(g5
S'\x84\xb6\xeb;'
p3089
tp3090
Rp3091
ag1
(g5
S'\x82\xc3\x03<'
p3092
tp3093
Rp3094
ag1
(g5
S'\x00H\xf6;'
p3095
tp3096
Rp3097
ag1
(g5
S'\xe0\x0b\x06<'
p3098
tp3099
Rp3100
ag1
(g5
S'\xf5\xb21<'
p3101
tp3102
Rp3103
ag1
(g5
S'\x9a_\xfa;'
p3104
tp3105
Rp3106
ag1
(g5
S'\x96\x1e\xf6;'
p3107
tp3108
Rp3109
ag1
(g5
S'OA\xf0;'
p3110
tp3111
Rp3112
ag1
(g5
S'j\xb7\xff;'
p3113
tp3114
Rp3115
ag1
(g5
S'\xe2\xf1\x03<'
p3116
tp3117
Rp3118
ag1
(g5
S'8D\xef;'
p3119
tp3120
Rp3121
ag1
(g5
S'\x0b]\xe1;'
p3122
tp3123
Rp3124
ag1
(g5
S'\xbc\n\xec;'
p3125
tp3126
Rp3127
ag1
(g5
S'\xa4(\xf3;'
p3128
tp3129
Rp3130
ag1
(g5
S'LD\xf0;'
p3131
tp3132
Rp3133
ag1
(g5
S'\xfb\x8e\xdf;'
p3134
tp3135
Rp3136
ag1
(g5
S'\xcd\x05\xff;'
p3137
tp3138
Rp3139
ag1
(g5
S'>\xbb\xf6;'
p3140
tp3141
Rp3142
ag1
(g5
S'\xcf\xf9\x12<'
p3143
tp3144
Rp3145
ag1
(g5
S'\xfd\xa7\xf8;'
p3146
tp3147
Rp3148
ag1
(g5
S'\x9cW\xf7;'
p3149
tp3150
Rp3151
ag1
(g5
S'\x98\x9a\xf7;'
p3152
tp3153
Rp3154
ag1
(g5
S'\xac\xa6\xf1;'
p3155
tp3156
Rp3157
ag1
(g5
S'\xa6\xff\x05<'
p3158
tp3159
Rp3160
ag1
(g5
S'\xf42\x00<'
p3161
tp3162
Rp3163
ag1
(g5
S'\x9d)\xdb;'
p3164
tp3165
Rp3166
ag1
(g5
S'\x91#\x01<'
p3167
tp3168
Rp3169
ag1
(g5
S'&\xfc\x05<'
p3170
tp3171
Rp3172
ag1
(g5
S'\x98\xea\xfa;'
p3173
tp3174
Rp3175
ag1
(g5
S'it\xe7;'
p3176
tp3177
Rp3178
ag1
(g5
S'\xc4\xe4\xee;'
p3179
tp3180
Rp3181
ag1
(g5
S'\xf6\x17\xea;'
p3182
tp3183
Rp3184
ag1
(g5
S'D\x01\xf5;'
p3185
tp3186
Rp3187
ag1
(g5
S'o\xe8\xe6;'
p3188
tp3189
Rp3190
ag1
(g5
S'BN\xdc;'
p3191
tp3192
Rp3193
ag1
(g5
S'\x10\x05\xfe;'
p3194
tp3195
Rp3196
ag1
(g5
S'\xc2k\xe4;'
p3197
tp3198
Rp3199
ag1
(g5
S'\x90\xfb\xed;'
p3200
tp3201
Rp3202
ag1
(g5
S'\xe8\xba\xec;'
p3203
tp3204
Rp3205
ag1
(g5
S'n\xfe\xec;'
p3206
tp3207
Rp3208
ag1
(g5
S'y\xda\x06<'
p3209
tp3210
Rp3211
ag1
(g5
S'*\x02\xe2;'
p3212
tp3213
Rp3214
ag1
(g5
S'\x16\xdb\xf0;'
p3215
tp3216
Rp3217
ag1
(g5
S'\x83:\xfe;'
p3218
tp3219
Rp3220
ag1
(g5
S'w\xbf\xea;'
p3221
tp3222
Rp3223
ag1
(g5
S'\x1e\xad\xd4;'
p3224
tp3225
Rp3226
ag1
(g5
S'\x8c\xb3\xe2;'
p3227
tp3228
Rp3229
ag1
(g5
S'`e\xf0;'
p3230
tp3231
Rp3232
ag1
(g5
S'`\xd0\xe4;'
p3233
tp3234
Rp3235
ag1
(g5
S':\xc3\xd3;'
p3236
tp3237
Rp3238
ag1
(g5
S'\xd4\xfa\xeb;'
p3239
tp3240
Rp3241
ag1
(g5
S'\xfc\xa3\xdd;'
p3242
tp3243
Rp3244
ag1
(g5
S'\xab\xea\xf9;'
p3245
tp3246
Rp3247
ag1
(g5
S'\xebf\xc9;'
p3248
tp3249
Rp3250
ag1
(g5
S'0\x07\xcf;'
p3251
tp3252
Rp3253
ag1
(g5
S'\x1dM\xd8;'
p3254
tp3255
Rp3256
ag1
(g5
S'\xd4\xf7\xd5;'
p3257
tp3258
Rp3259
ag1
(g5
S'@\xd1\xc3;'
p3260
tp3261
Rp3262
ag1
(g5
S' )\xc3;'
p3263
tp3264
Rp3265
ag1
(g5
S'\xcb\x18\xdd;'
p3266
tp3267
Rp3268
ag1
(g5
S'E{\xc4;'
p3269
tp3270
Rp3271
ag1
(g5
S'\xe7d\xcc;'
p3272
tp3273
Rp3274
ag1
(g5
S'\xc6\xce\xc7;'
p3275
tp3276
Rp3277
ag1
(g5
S'l\xa2\xcf;'
p3278
tp3279
Rp3280
ag1
(g5
S'x\xbe\xd3;'
p3281
tp3282
Rp3283
ag1
(g5
S'\x0eG\xe1;'
p3284
tp3285
Rp3286
ag1
(g5
S'\x86z\xe8;'
p3287
tp3288
Rp3289
ag1
(g5
S'\xe9\xb0\xd9;'
p3290
tp3291
Rp3292
ag1
(g5
S'\xe2Q\x00<'
p3293
tp3294
Rp3295
ag1
(g5
S'B\x04\xeb;'
p3296
tp3297
Rp3298
ag1
(g5
S'\x8c\x87\x06<'
p3299
tp3300
Rp3301
ag1
(g5
S'I4\xde;'
p3302
tp3303
Rp3304
ag1
(g5
S'\x8e\x8c\xe7;'
p3305
tp3306
Rp3307
ag1
(g5
S':7\xf0;'
p3308
tp3309
Rp3310
ag1
(g5
S'E\xfa\xf5;'
p3311
tp3312
Rp3313
ag1
(g5
S's\xf2\x02<'
p3314
tp3315
Rp3316
ag1
(g5
S'L\x88\x02<'
p3317
tp3318
Rp3319
ag1
(g5
S'H\x98\xe7;'
p3320
tp3321
Rp3322
ag1
(g5
S'\xbd\xb5\xf6;'
p3323
tp3324
Rp3325
ag1
(g5
S'\x1a\xba\xff;'
p3326
tp3327
Rp3328
ag1
(g5
S'\t\xa7\n<'
p3329
tp3330
Rp3331
ag1
(g5
S'\xab~\x04<'
p3332
tp3333
Rp3334
ag1
(g5
S'\xa2\x11\xfa;'
p3335
tp3336
Rp3337
ag1
(g5
S'\xe8j\x03<'
p3338
tp3339
Rp3340
ag1
(g5
S'\xf5\xa4\xfb;'
p3341
tp3342
Rp3343
ag1
(g5
S'x6\xfe;'
p3344
tp3345
Rp3346
ag1
(g5
S'\xfe\xdc\x01<'
p3347
tp3348
Rp3349
ag1
(g5
S'\xe8v\xeb;'
p3350
tp3351
Rp3352
ag1
(g5
S'\xc8\xf6\x17<'
p3353
tp3354
Rp3355
ag1
(g5
S'\x18\xab3<'
p3356
tp3357
Rp3358
ag1
(g5
S'\xe8\xde\x12<'
p3359
tp3360
Rp3361
ag1
(g5
S'I!\r<'
p3362
tp3363
Rp3364
ag1
(g5
S'\x9e\xaa8<'
p3365
tp3366
Rp3367
ag1
(g5
S'tW\x12<'
p3368
tp3369
Rp3370
ag1
(g5
S'$\xf5\x1e<'
p3371
tp3372
Rp3373
ag1
(g5
S'\x1d\xf18<'
p3374
tp3375
Rp3376
ag1
(g5
S'ZZ(<'
p3377
tp3378
Rp3379
ag1
(g5
S'X\x1d#<'
p3380
tp3381
Rp3382
ag1
(g5
S'\xa1\x9c\x1e<'
p3383
tp3384
Rp3385
ag1
(g5
S'\x0f\xa44<'
p3386
tp3387
Rp3388
ag1
(g5
S'\xfe\xf2\x19<'
p3389
tp3390
Rp3391
ag1
(g5
S'Yi6<'
p3392
tp3393
Rp3394
ag1
(g5
S'\x1e5;<'
p3395
tp3396
Rp3397
ag1
(g5
S'\xea\xa76<'
p3398
tp3399
Rp3400
ag1
(g5
S'\x8d\x193<'
p3401
tp3402
Rp3403
ag1
(g5
S'@\x83/<'
p3404
tp3405
Rp3406
ag1
(g5
S'\xca\xe3,<'
p3407
tp3408
Rp3409
ag1
(g5
S'[\xb8 <'
p3410
tp3411
Rp3412
ag1
(g5
S'\x10\x8b&<'
p3413
tp3414
Rp3415
ag1
(g5
S'"\x86,<'
p3416
tp3417
Rp3418
ag1
(g5
S'\xde\xbe6<'
p3419
tp3420
Rp3421
ag1
(g5
S'O54<'
p3422
tp3423
Rp3424
ag1
(g5
S'W\xca.<'
p3425
tp3426
Rp3427
ag1
(g5
S'\xc8\x9c!<'
p3428
tp3429
Rp3430
ag1
(g5
S'.\x01\xfa;'
p3431
tp3432
Rp3433
ag1
(g5
S'\xd5&\xbc;'
p3434
tp3435
Rp3436
ag1
(g5
S'\xf40\xa6;'
p3437
tp3438
Rp3439
ag1
(g5
S'\xb9,\x8f;'
p3440
tp3441
Rp3442
ag1
(g5
S'\x90\xfe\xa9;'
p3443
tp3444
Rp3445
ag1
(g5
S'\x1c7\x83;'
p3446
tp3447
Rp3448
ag1
(g5
S'\x06\xecc;'
p3449
tp3450
Rp3451
ag1
(g5
S'c\x8fy;'
p3452
tp3453
Rp3454
ag1
(g5
S'\x93m\x93;'
p3455
tp3456
Rp3457
ag1
(g5
S'T\xeb\x91;'
p3458
tp3459
Rp3460
ag1
(g5
S'$d\xb6;'
p3461
tp3462
Rp3463
ag1
(g5
S'\xce\xef\xd5;'
p3464
tp3465
Rp3466
ag1
(g5
S'mn\xb8;'
p3467
tp3468
Rp3469
ag1
(g5
S'~Y\xa1;'
p3470
tp3471
Rp3472
ag1
(g5
S'\xeb\xc3d;'
p3473
tp3474
Rp3475
ag1
(g5
S'b\xd1?;'
p3476
tp3477
Rp3478
ag1
(g5
S'\x16\xf8e;'
p3479
tp3480
Rp3481
ag1
(g5
S'p\x90\x9b;'
p3482
tp3483
Rp3484
ag1
(g5
S'\x99\xcf\x87;'
p3485
tp3486
Rp3487
ag1
(g5
S'\xd1yz;'
p3488
tp3489
Rp3490
ag1
(g5
S'<p7;'
p3491
tp3492
Rp3493
ag1
(g5
S'\xb7gE;'
p3494
tp3495
Rp3496
ag1
(g5
S'?\x83_;'
p3497
tp3498
Rp3499
ag1
(g5
S'\r\x86O;'
p3500
tp3501
Rp3502
ag1
(g5
S'\rcB;'
p3503
tp3504
Rp3505
ag1
(g5
S'x^B;'
p3506
tp3507
Rp3508
ag1
(g5
S'\xf8( ;'
p3509
tp3510
Rp3511
ag1
(g5
S'^\xe9\r;'
p3512
tp3513
Rp3514
ag1
(g5
S'4 \x1c;'
p3515
tp3516
Rp3517
ag1
(g5
S'Q \x1e;'
p3518
tp3519
Rp3520
ag1
(g5
S'\x03\xd9,;'
p3521
tp3522
Rp3523
ag1
(g5
S'r!1;'
p3524
tp3525
Rp3526
ag1
(g5
S'\xb0\x0b\x1d;'
p3527
tp3528
Rp3529
ag1
(g5
S'\x91\x95\x19;'
p3530
tp3531
Rp3532
ag1
(g5
S'\xfaJ\x07;'
p3533
tp3534
Rp3535
ag1
(g5
S'u\xd3\x0b;'
p3536
tp3537
Rp3538
ag1
(g5
S'\x0b\xaa\x19;'
p3539
tp3540
Rp3541
ag1
(g5
S'\x0b&\x15;'
p3542
tp3543
Rp3544
ag1
(g5
S'\xf3v\x12;'
p3545
tp3546
Rp3547
ag1
(g5
S'\xa2=\n;'
p3548
tp3549
Rp3550
ag1
(g5
S'*\x0c\x07;'
p3551
tp3552
Rp3553
ag1
(g5
S'c\xf4\x0b;'
p3554
tp3555
Rp3556
ag1
(g5
S'5\xb4\x0e;'
p3557
tp3558
Rp3559
ag1
(g5
S'\x1c/\t;'
p3560
tp3561
Rp3562
ag1
(g5
S'\xfe7\x08;'
p3563
tp3564
Rp3565
ag1
(g5
S'\x92\x9e\n;'
p3566
tp3567
Rp3568
ag1
(g5
S'F\xd3\xf2:'
p3569
tp3570
Rp3571
ag1
(g5
S'\x02\xd9G<'
p3572
tp3573
Rp3574
ag1
(g5
S'J\xd69<'
p3575
tp3576
Rp3577
ag1
(g5
S'\xddFK<'
p3578
tp3579
Rp3580
ag1
(g5
S':t*<'
p3581
tp3582
Rp3583
ag1
(g5
S'\xd4I<<'
p3584
tp3585
Rp3586
ag1
(g5
S'\x0e$C<'
p3587
tp3588
Rp3589
ag1
(g5
S'\x88\xd8:<'
p3590
tp3591
Rp3592
ag1
(g5
S'\xd7\x0bN<'
p3593
tp3594
Rp3595
ag1
(g5
S'$r2<'
p3596
tp3597
Rp3598
ag1
(g5
S'\xe2%.<'
p3599
tp3600
Rp3601
ag1
(g5
S'v})<'
p3602
tp3603
Rp3604
ag1
(g5
S'\x03\xbd?<'
p3605
tp3606
Rp3607
ag1
(g5
S'\xdb\xea\x93<'
p3608
tp3609
Rp3610
ag1
(g5
S'\x160\x8b<'
p3611
tp3612
Rp3613
ag1
(g5
S'H\xb2\x82<'
p3614
tp3615
Rp3616
ag1
(g5
S'\x82\xb2\x8b<'
p3617
tp3618
Rp3619
ag1
(g5
S'\xca\xab\x88<'
p3620
tp3621
Rp3622
ag1
(g5
S'\x14\xd6\x89<'
p3623
tp3624
Rp3625
ag1
(g5
S'(V\x87<'
p3626
tp3627
Rp3628
ag1
(g5
S'\xc1\x11\x88<'
p3629
tp3630
Rp3631
ag1
(g5
S'1c\x86<'
p3632
tp3633
Rp3634
ag1
(g5
S'+\xbe\x89<'
p3635
tp3636
Rp3637
ag1
(g5
S'"\xce\x83<'
p3638
tp3639
Rp3640
ag1
(g5
S"{'\x8b<"
p3641
tp3642
Rp3643
ag1
(g5
S'.\x86\x84<'
p3644
tp3645
Rp3646
ag1
(g5
S'\xa4\xed\x80<'
p3647
tp3648
Rp3649
ag1
(g5
S'\x90\x87\x83<'
p3650
tp3651
Rp3652
ag1
(g5
S'\xcb\xd8\x82<'
p3653
tp3654
Rp3655
ag1
(g5
S'\xfa\xe6\x82<'
p3656
tp3657
Rp3658
ag1
(g5
S'\xf3p\x80<'
p3659
tp3660
Rp3661
ag1
(g5
S'\xbb\xe3\x82<'
p3662
tp3663
Rp3664
ag1
(g5
S'\x93\xec\x83<'
p3665
tp3666
Rp3667
ag1
(g5
S'\x10\x93\x82<'
p3668
tp3669
Rp3670
ag1
(g5
S'\xa5}\x82<'
p3671
tp3672
Rp3673
ag1
(g5
S'\x1e\x8d\x89<'
p3674
tp3675
Rp3676
ag1
(g5
S'\xbe\xb1\x88<'
p3677
tp3678
Rp3679
ag1
(g5
S'(\xfcv<'
p3680
tp3681
Rp3682
ag1
(g5
S'\x9a\xf0r<'
p3683
tp3684
Rp3685
ag1
(g5
S',\xe1w<'
p3686
tp3687
Rp3688
ag1
(g5
S'\x84|{<'
p3689
tp3690
Rp3691
ag1
(g5
S'\xfc\xbcl<'
p3692
tp3693
Rp3694
ag1
(g5
S'\xcc\x95|<'
p3695
tp3696
Rp3697
ag1
(g5
S'@\x12x<'
p3698
tp3699
Rp3700
ag1
(g5
S'c]\x87<'
p3701
tp3702
Rp3703
ag1
(g5
S';\xb1k<'
p3704
tp3705
Rp3706
ag1
(g5
S'\xc4\xec\x82<'
p3707
tp3708
Rp3709
ag1
(g5
S'\xe2`s<'
p3710
tp3711
Rp3712
ag1
(g5
S'\xeb\xaf\x82<'
p3713
tp3714
Rp3715
ag1
(g5
S's\xa3}<'
p3716
tp3717
Rp3718
ag1
(g5
S'+\x19b<'
p3719
tp3720
Rp3721
ag1
(g5
S'\xad\xd3i<'
p3722
tp3723
Rp3724
ag1
(g5
S'\x83+z<'
p3725
tp3726
Rp3727
ag1
(g5
S'\x9c/_<'
p3728
tp3729
Rp3730
ag1
(g5
S'r~l<'
p3731
tp3732
Rp3733
ag1
(g5
S'-\xa6e<'
p3734
tp3735
Rp3736
ag1
(g5
S':\xa5a<'
p3737
tp3738
Rp3739
ag1
(g5
S'\x92\xaco<'
p3740
tp3741
Rp3742
ag1
(g5
S'\x04\xd7j<'
p3743
tp3744
Rp3745
ag1
(g5
S'\xa9\x05p<'
p3746
tp3747
Rp3748
ag1
(g5
S'\xd2\x03\x7f<'
p3749
tp3750
Rp3751
ag1
(g5
S'\xd2\x9e\xb3;'
p3752
tp3753
Rp3754
ag1
(g5
S'\x1cG\xb4;'
p3755
tp3756
Rp3757
ag1
(g5
S'ay\xb3;'
p3758
tp3759
Rp3760
ag1
(g5
S'\x99?\xb7;'
p3761
tp3762
Rp3763
ag1
(g5
S'\xd1W\xa5;'
p3764
tp3765
Rp3766
ag1
(g5
S'=\x8a\xc2;'
p3767
tp3768
Rp3769
ag1
(g5
S'\xc9\xbd\xb6;'
p3770
tp3771
Rp3772
ag1
(g5
S'\xaa\xeb\xa6;'
p3773
tp3774
Rp3775
ag1
(g5
S'\xb6\x8d\xaa;'
p3776
tp3777
Rp3778
ag1
(g5
S'\x10\xb1\xab;'
p3779
tp3780
Rp3781
ag1
(g5
S'\xd4B\xa8;'
p3782
tp3783
Rp3784
ag1
(g5
S'\xcc\t\x94;'
p3785
tp3786
Rp3787
ag1
(g5
S'\xab\x1d\r;'
p3788
tp3789
Rp3790
ag1
(g5
S'\x89\x9f\x08;'
p3791
tp3792
Rp3793
ag1
(g5
S'\x1c\xfb\x06;'
p3794
tp3795
Rp3796
ag1
(g5
S'\xd1\n\x12;'
p3797
tp3798
Rp3799
ag1
(g5
S'(\xa1\x1c;'
p3800
tp3801
Rp3802
ag1
(g5
S'\x84Y\x1f;'
p3803
tp3804
Rp3805
ag1
(g5
S'\x01?\t;'
p3806
tp3807
Rp3808
ag1
(g5
S'\x16L\x0c;'
p3809
tp3810
Rp3811
ag1
(g5
S'X\xb3\x02;'
p3812
tp3813
Rp3814
ag1
(g5
S'\xe4\xd9\x05;'
p3815
tp3816
Rp3817
ag1
(g5
S'.\xeb\r;'
p3818
tp3819
Rp3820
ag1
(g5
S'.\x89&;'
p3821
tp3822
Rp3823
ag1
(g5
S'l\xa4\xd9;'
p3824
tp3825
Rp3826
ag1
(g5
S'=H\xf2;'
p3827
tp3828
Rp3829
ag1
(g5
S'6\x94\xda;'
p3830
tp3831
Rp3832
ag1
(g5
S'\x8d\x11\r<'
p3833
tp3834
Rp3835
ag1
(g5
S'\xe9\xbf\xf5;'
p3836
tp3837
Rp3838
ag1
(g5
S'\xfc\x10\xf8;'
p3839
tp3840
Rp3841
ag1
(g5
S'\x9e\x9c\xf9;'
p3842
tp3843
Rp3844
ag1
(g5
S'\x1cY\xea;'
p3845
tp3846
Rp3847
ag1
(g5
S'J~\x00<'
p3848
tp3849
Rp3850
ag1
(g5
S'\xe26\xf6;'
p3851
tp3852
Rp3853
ag1
(g5
S'\xdc\x89\x01<'
p3854
tp3855
Rp3856
ag1
(g5
S'Q\x9c\xcf;'
p3857
tp3858
Rp3859
ag1
(g5
S'\x81\xb9><'
p3860
tp3861
Rp3862
ag1
(g5
S'\x92\x1b-<'
p3863
tp3864
Rp3865
ag1
(g5
S'\xa8\xb5/<'
p3866
tp3867
Rp3868
ag1
(g5
S'.*2<'
p3869
tp3870
Rp3871
ag1
(g5
S'\xb8\xb56<'
p3872
tp3873
Rp3874
ag1
(g5
S'\x10f4<'
p3875
tp3876
Rp3877
ag1
(g5
S'3s8<'
p3878
tp3879
Rp3880
ag1
(g5
S"\x1b'=<"
p3881
tp3882
Rp3883
ag1
(g5
S'\xd5\xd1%<'
p3884
tp3885
Rp3886
ag1
(g5
S'\x13\xf81<'
p3887
tp3888
Rp3889
ag1
(g5
S'\xd7@-<'
p3890
tp3891
Rp3892
ag1
(g5
S'\xa9\xc3?<'
p3893
tp3894
Rp3895
ag1
(g5
S"\x84';<"
p3896
tp3897
Rp3898
ag1
(g5
S'\xd6\xed0<'
p3899
tp3900
Rp3901
ag1
(g5
S'\x19\x07><'
p3902
tp3903
Rp3904
ag1
(g5
S'\x8a\xbb:<'
p3905
tp3906
Rp3907
ag1
(g5
S'\xd4\x92*<'
p3908
tp3909
Rp3910
ag1
(g5
S'p\xb26<'
p3911
tp3912
Rp3913
ag1
(g5
S'@]?<'
p3914
tp3915
Rp3916
ag1
(g5
S'Z\x9b><'
p3917
tp3918
Rp3919
ag1
(g5
S'\x82\xcb5<'
p3920
tp3921
Rp3922
ag1
(g5
S'6r3<'
p3923
tp3924
Rp3925
ag1
(g5
S'=\x129<'
p3926
tp3927
Rp3928
ag1
(g5
S'\x0c\xc7/<'
p3929
tp3930
Rp3931
ag1
(g5
S'\xd2\t\x19<'
p3932
tp3933
Rp3934
ag1
(g5
S'\xa3\x1f#<'
p3935
tp3936
Rp3937
ag1
(g5
S'eA\x11<'
p3938
tp3939
Rp3940
ag1
(g5
S'Nl\x1a<'
p3941
tp3942
Rp3943
ag1
(g5
S'Mj\x18<'
p3944
tp3945
Rp3946
ag1
(g5
S'jd\x1e<'
p3947
tp3948
Rp3949
ag1
(g5
S'\x9b\x08\x15<'
p3950
tp3951
Rp3952
ag1
(g5
S'\x99G\x18<'
p3953
tp3954
Rp3955
ag1
(g5
S' \xa2\x08<'
p3956
tp3957
Rp3958
ag1
(g5
S'\x9e\n <'
p3959
tp3960
Rp3961
ag1
(g5
S'l+%<'
p3962
tp3963
Rp3964
ag1
(g5
S'P\x87\x08<'
p3965
tp3966
Rp3967
ag1
(g5
S'\xc3\xf4\x14<'
p3968
tp3969
Rp3970
ag1
(g5
S'\xc9I\x1b<'
p3971
tp3972
Rp3973
ag1
(g5
S'\xc3t\x1e<'
p3974
tp3975
Rp3976
ag1
(g5
S'\xfd%%<'
p3977
tp3978
Rp3979
ag1
(g5
S'\xfaQ\x08<'
p3980
tp3981
Rp3982
ag1
(g5
S'\x02w\x0f<'
p3983
tp3984
Rp3985
ag1
(g5
S'\xf7\\\x0c<'
p3986
tp3987
Rp3988
ag1
(g5
S'\xad\x1a\x16<'
p3989
tp3990
Rp3991
ag1
(g5
S'\xfbN\x1a<'
p3992
tp3993
Rp3994
ag1
(g5
S'$\xf3\x19<'
p3995
tp3996
Rp3997
ag1
(g5
S'`r\r<'
p3998
tp3999
Rp4000
ag1
(g5
S'\xe8\x1e\x1a<'
p4001
tp4002
Rp4003
ag1
(g5
S'G\xb7\xee;'
p4004
tp4005
Rp4006
ag1
(g5
S'Q\x11\x04<'
p4007
tp4008
Rp4009
ag1
(g5
S'l\xa2\x00<'
p4010
tp4011
Rp4012
ag1
(g5
S'r?\xf0;'
p4013
tp4014
Rp4015
ag1
(g5
S'M\x1e\xef;'
p4016
tp4017
Rp4018
ag1
(g5
S'\x9ap\xf2;'
p4019
tp4020
Rp4021
ag1
(g5
S'Y\xcf\xf0;'
p4022
tp4023
Rp4024
ag1
(g5
S'\x89\xff\xe8;'
p4025
tp4026
Rp4027
ag1
(g5
S'>]\x01<'
p4028
tp4029
Rp4030
ag1
(g5
S'\xef\xb4\xfe;'
p4031
tp4032
Rp4033
ag1
(g5
S'\xac*\xf1;'
p4034
tp4035
Rp4036
ag1
(g5
S'b \r<'
p4037
tp4038
Rp4039
ag1
(g5
S'\xafq\x00<'
p4040
tp4041
Rp4042
ag1
(g5
S'\n\xd6\x04<'
p4043
tp4044
Rp4045
ag1
(g5
S'\x91\xdb\xf2;'
p4046
tp4047
Rp4048
ag1
(g5
S'\xa7\xfe\x00<'
p4049
tp4050
Rp4051
ag1
(g5
S'\x10\xfe\xf9;'
p4052
tp4053
Rp4054
ag1
(g5
S'\xda.\xfc;'
p4055
tp4056
Rp4057
ag1
(g5
S'tP\x01<'
p4058
tp4059
Rp4060
ag1
(g5
S'0D\xf3;'
p4061
tp4062
Rp4063
ag1
(g5
S'z_\x0f<'
p4064
tp4065
Rp4066
ag1
(g5
S'\x1f\x1e\xff;'
p4067
tp4068
Rp4069
ag1
(g5
S'\x1fI\xed;'
p4070
tp4071
Rp4072
ag1
(g5
S'\xdc\xdf\xf8;'
p4073
tp4074
Rp4075
ag1
(g5
S'\x89\xec\xee;'
p4076
tp4077
Rp4078
ag1
(g5
S'\xbd\x83\xf5;'
p4079
tp4080
Rp4081
ag1
(g5
S'\x03\xb8\x07<'
p4082
tp4083
Rp4084
ag1
(g5
S'/.\x0c<'
p4085
tp4086
Rp4087
ag1
(g5
S'.,\xec;'
p4088
tp4089
Rp4090
ag1
(g5
S'\xe59\x04<'
p4091
tp4092
Rp4093
ag1
(g5
S"\x98'\xee;"
p4094
tp4095
Rp4096
ag1
(g5
S'\xefw\xfd;'
p4097
tp4098
Rp4099
ag1
(g5
S'\x04\xe1\xf7;'
p4100
tp4101
Rp4102
ag1
(g5
S's\xc8\xfc;'
p4103
tp4104
Rp4105
ag1
(g5
S'\x98j\x04<'
p4106
tp4107
Rp4108
ag1
(g5
S'\x14\xe3\x04<'
p4109
tp4110
Rp4111
ag1
(g5
S'9\xe6\xe1;'
p4112
tp4113
Rp4114
ag1
(g5
S'\xca{\xe3;'
p4115
tp4116
Rp4117
ag1
(g5
S'v\x91\xe9;'
p4118
tp4119
Rp4120
ag1
(g5
S'v\xc0\xf1;'
p4121
tp4122
Rp4123
ag1
(g5
S'X\xd2\xe3;'
p4124
tp4125
Rp4126
ag1
(g5
S'\x9c\xdd\xdc;'
p4127
tp4128
Rp4129
ag1
(g5
S'\xb2\x89\xf3;'
p4130
tp4131
Rp4132
ag1
(g5
S'T\xde\xd4;'
p4133
tp4134
Rp4135
ag1
(g5
S' \x9a\xe7;'
p4136
tp4137
Rp4138
ag1
(g5
S'\x9a\x90\xe3;'
p4139
tp4140
Rp4141
ag1
(g5
S'\x14S\xf7;'
p4142
tp4143
Rp4144
ag1
(g5
S'(\x1d\xd4;'
p4145
tp4146
Rp4147
ag1
(g5
S'\xe8\xe3\xf8;'
p4148
tp4149
Rp4150
ag1
(g5
S'E\xc2\xe8;'
p4151
tp4152
Rp4153
ag1
(g5
S'\x00\r\xed;'
p4154
tp4155
Rp4156
ag1
(g5
S'\xc4\xe2\xe1;'
p4157
tp4158
Rp4159
ag1
(g5
S'x\xf1\xe7;'
p4160
tp4161
Rp4162
ag1
(g5
S'\xd2~\xd0;'
p4163
tp4164
Rp4165
ag1
(g5
S':;\xfa;'
p4166
tp4167
Rp4168
ag1
(g5
S'z\xd9\xf2;'
p4169
tp4170
Rp4171
ag1
(g5
S'V\x80\xcf;'
p4172
tp4173
Rp4174
ag1
(g5
S'&\xf8\xdd;'
p4175
tp4176
Rp4177
ag1
(g5
S'=\xef\xce;'
p4178
tp4179
Rp4180
ag1
(g5
S'B\x88\xda;'
p4181
tp4182
Rp4183
ag1
(g5
S'\xfb\xc1\xe1;'
p4184
tp4185
Rp4186
ag1
(g5
S'\x03\xff\xd2;'
p4187
tp4188
Rp4189
ag1
(g5
S'<\xe2\xdd;'
p4190
tp4191
Rp4192
ag1
(g5
S'\xe6\x99\xda;'
p4193
tp4194
Rp4195
ag1
(g5
S'<\x8f\xe6;'
p4196
tp4197
Rp4198
ag1
(g5
S'\xd9\xe5\xef;'
p4199
tp4200
Rp4201
ag1
(g5
S"\x96'\xdc;"
p4202
tp4203
Rp4204
ag1
(g5
S'\x86q\xe0;'
p4205
tp4206
Rp4207
ag1
(g5
S'\x16\xc8\xe3;'
p4208
tp4209
Rp4210
ag1
(g5
S'^Q\xfe;'
p4211
tp4212
Rp4213
ag1
(g5
S'\xf6\xfb\xeb;'
p4214
tp4215
Rp4216
ag1
(g5
S'B\xfa\x15<'
p4217
tp4218
Rp4219
ag1
(g5
S'\xa5\xa0\xd8;'
p4220
tp4221
Rp4222
ag1
(g5
S'9\xbc\xcd;'
p4223
tp4224
Rp4225
ag1
(g5
S'\xf45\xdf;'
p4226
tp4227
Rp4228
ag1
(g5
S'\x05P\xcf;'
p4229
tp4230
Rp4231
ag1
(g5
S'\xda\x97\xdb;'
p4232
tp4233
Rp4234
ag1
(g5
S'\xa0k\xcf;'
p4235
tp4236
Rp4237
ag1
(g5
S'`2\xc6;'
p4238
tp4239
Rp4240
ag1
(g5
S'\x93\xc3\xc5;'
p4241
tp4242
Rp4243
ag1
(g5
S'N\x95\xbf;'
p4244
tp4245
Rp4246
ag1
(g5
S'\xc2\xc1\xdc;'
p4247
tp4248
Rp4249
ag1
(g5
S'V\x84\xd6;'
p4250
tp4251
Rp4252
ag1
(g5
S'\xa2c\xd7;'
p4253
tp4254
Rp4255
ag1
(g5
S'\x9e\xb8\xd7;'
p4256
tp4257
Rp4258
ag1
(g5
S'\xe5U\xeb;'
p4259
tp4260
Rp4261
ag1
(g5
S'X\x89\xd0;'
p4262
tp4263
Rp4264
ag1
(g5
S'\x88\xee\xdb;'
p4265
tp4266
Rp4267
ag1
(g5
S']Q\xd5;'
p4268
tp4269
Rp4270
ag1
(g5
S'e\\\xed;'
p4271
tp4272
Rp4273
ag1
(g5
S'\x08`\xd8;'
p4274
tp4275
Rp4276
ag1
(g5
S'\\N\xd4;'
p4277
tp4278
Rp4279
ag1
(g5
S'\xd4<\xdf;'
p4280
tp4281
Rp4282
ag1
(g5
S'+N\xc9;'
p4283
tp4284
Rp4285
ag1
(g5
S'\x94a\xeb;'
p4286
tp4287
Rp4288
ag1
(g5
S'U]\xc8;'
p4289
tp4290
Rp4291
ag1
(g5
S'eh\xe0;'
p4292
tp4293
Rp4294
ag1
(g5
S'(\xab\xda;'
p4295
tp4296
Rp4297
ag1
(g5
S'c\xce\x02<'
p4298
tp4299
Rp4300
ag1
(g5
S'D[\xde;'
p4301
tp4302
Rp4303
ag1
(g5
S'Dv\xf8;'
p4304
tp4305
Rp4306
ag1
(g5
S'\xb7\xe0\xe8;'
p4307
tp4308
Rp4309
ag1
(g5
S'\xaa \x03<'
p4310
tp4311
Rp4312
ag1
(g5
S'\xf1\xd7\xf6;'
p4313
tp4314
Rp4315
ag1
(g5
S'\xb5,\x04<'
p4316
tp4317
Rp4318
ag1
(g5
S'\xc6\xf8\x08<'
p4319
tp4320
Rp4321
ag1
(g5
S'\x82\xd9\xfa;'
p4322
tp4323
Rp4324
ag1
(g5
S'\xb4\x11\xed;'
p4325
tp4326
Rp4327
ag1
(g5
S'\xdeT\xcc;'
p4328
tp4329
Rp4330
ag1
(g5
S'\\\xc8\xcb;'
p4331
tp4332
Rp4333
ag1
(g5
S'\xde\xf8\xcc;'
p4334
tp4335
Rp4336
ag1
(g5
S'\r=\xcf;'
p4337
tp4338
Rp4339
ag1
(g5
S'\xd9\xe9\xb9;'
p4340
tp4341
Rp4342
ag1
(g5
S'\\?\xbc;'
p4343
tp4344
Rp4345
ag1
(g5
S'\x01&\xd0;'
p4346
tp4347
Rp4348
ag1
(g5
S'6\xf2\xc6;'
p4349
tp4350
Rp4351
ag1
(g5
S'Z\xe2\xc3;'
p4352
tp4353
Rp4354
ag1
(g5
S'=4\xbb;'
p4355
tp4356
Rp4357
ag1
(g5
S'+\xac\xba;'
p4358
tp4359
Rp4360
ag1
(g5
S'\xf0\xa6\xac;'
p4361
tp4362
Rp4363
ag1
(g5
S'r8\xd8;'
p4364
tp4365
Rp4366
ag1
(g5
S'\x90k\xde;'
p4367
tp4368
Rp4369
ag1
(g5
S'\xbc\xc8\xd4;'
p4370
tp4371
Rp4372
ag1
(g5
S'\xeeO\xba;'
p4373
tp4374
Rp4375
ag1
(g5
S'0\x9c\xcf;'
p4376
tp4377
Rp4378
ag1
(g5
S'\xe7\x02\xcb;'
p4379
tp4380
Rp4381
ag1
(g5
S'\xc70\xbe;'
p4382
tp4383
Rp4384
ag1
(g5
S'8\xba\xca;'
p4385
tp4386
Rp4387
ag1
(g5
S'\x05\x87\xcc;'
p4388
tp4389
Rp4390
ag1
(g5
S'\xec\xdb\xd7;'
p4391
tp4392
Rp4393
ag1
(g5
S'\xfa@\xcc;'
p4394
tp4395
Rp4396
ag1
(g5
S'p\xa5\xaa;'
p4397
tp4398
Rp4399
ag1
(g5
S'Wb\xd0;'
p4400
tp4401
Rp4402
ag1
(g5
S'\xd4\x85\xad;'
p4403
tp4404
Rp4405
ag1
(g5
S'\x05\xa6\xb4;'
p4406
tp4407
Rp4408
ag1
(g5
S'v*\xb7;'
p4409
tp4410
Rp4411
ag1
(g5
S'\xb41\xb7;'
p4412
tp4413
Rp4414
ag1
(g5
S'\x98Q\xb7;'
p4415
tp4416
Rp4417
ag1
(g5
S'\xbf2\xc3;'
p4418
tp4419
Rp4420
ag1
(g5
S'\xecq\xbb;'
p4421
tp4422
Rp4423
ag1
(g5
S'(o\xb0;'
p4424
tp4425
Rp4426
ag1
(g5
S'\xca\xd7\xb1;'
p4427
tp4428
Rp4429
ag1
(g5
S';7\xca;'
p4430
tp4431
Rp4432
ag1
(g5
S'\xd2k\xc3;'
p4433
tp4434
Rp4435
ag1
(g5
S'\x87\xf75<'
p4436
tp4437
Rp4438
ag1
(g5
S'\xdd\x1f5<'
p4439
tp4440
Rp4441
ag1
(g5
S'n\xbe+<'
p4442
tp4443
Rp4444
ag1
(g5
S'\xc1\xca.<'
p4445
tp4446
Rp4447
ag1
(g5
S'\x02\xa9*<'
p4448
tp4449
Rp4450
ag1
(g5
S'e\x10%<'
p4451
tp4452
Rp4453
ag1
(g5
S'\xefR/<'
p4454
tp4455
Rp4456
ag1
(g5
S'"\xee\x19<'
p4457
tp4458
Rp4459
ag1
(g5
S'\xa9f,<'
p4460
tp4461
Rp4462
ag1
(g5
S'\xc1F3<'
p4463
tp4464
Rp4465
ag1
(g5
S'\x0e>9<'
p4466
tp4467
Rp4468
ag1
(g5
S'/# <'
p4469
tp4470
Rp4471
ag1
(g5
S'5\xedY<'
p4472
tp4473
Rp4474
ag1
(g5
S'.\xf1z<'
p4475
tp4476
Rp4477
ag1
(g5
S'\x1aos<'
p4478
tp4479
Rp4480
ag1
(g5
S'\xfcSd<'
p4481
tp4482
Rp4483
ag1
(g5
S'{\xc7l<'
p4484
tp4485
Rp4486
ag1
(g5
S'\xb0!]<'
p4487
tp4488
Rp4489
ag1
(g5
S'\xbbNe<'
p4490
tp4491
Rp4492
ag1
(g5
S'\x92\x88|<'
p4493
tp4494
Rp4495
ag1
(g5
S'o\xb6a<'
p4496
tp4497
Rp4498
ag1
(g5
S'\x187a<'
p4499
tp4500
Rp4501
ag1
(g5
S'\x9bUf<'
p4502
tp4503
Rp4504
ag1
(g5
S'>Tz<'
p4505
tp4506
Rp4507
ag1
(g5
S'\xd8\xa5&;'
p4508
tp4509
Rp4510
ag1
(g5
S'9\xd4\x1d;'
p4511
tp4512
Rp4513
ag1
(g5
S'\x14"&;'
p4514
tp4515
Rp4516
ag1
(g5
S'\x11\xbf#;'
p4517
tp4518
Rp4519
ag1
(g5
S'\x83K";'
p4520
tp4521
Rp4522
ag1
(g5
S'\tS\x1a;'
p4523
tp4524
Rp4525
ag1
(g5
S'\x16\x10\x18;'
p4526
tp4527
Rp4528
ag1
(g5
S'\x10\x99\x11;'
p4529
tp4530
Rp4531
ag1
(g5
S'\xbfM\x1d;'
p4532
tp4533
Rp4534
ag1
(g5
S'L[\x1b;'
p4535
tp4536
Rp4537
ag1
(g5
S'\xc7S\x18;'
p4538
tp4539
Rp4540
ag1
(g5
S'\x1c\xaf=;'
p4541
tp4542
Rp4543
ag1
(g5
S'g\x0c\x02<'
p4544
tp4545
Rp4546
ag1
(g5
S"\x1a'\xe1;"
p4547
tp4548
Rp4549
ag1
(g5
S'\xb1\x87\xe7;'
p4550
tp4551
Rp4552
ag1
(g5
S'K\xcd\x14<'
p4553
tp4554
Rp4555
ag1
(g5
S'\x14$\xdb;'
p4556
tp4557
Rp4558
ag1
(g5
S'\xd7\xfb\x08<'
p4559
tp4560
Rp4561
ag1
(g5
S'v\xae\x05<'
p4562
tp4563
Rp4564
ag1
(g5
S'Z~\x07<'
p4565
tp4566
Rp4567
ag1
(g5
S'\xf8\x88\x05<'
p4568
tp4569
Rp4570
ag1
(g5
S'\x0e\xdb\x05<'
p4571
tp4572
Rp4573
ag1
(g5
S'\x02\xbf\x0c<'
p4574
tp4575
Rp4576
ag1
(g5
S'\xe3G\x18<'
p4577
tp4578
Rp4579
ag1
(g5
S',\x91!<'
p4580
tp4581
Rp4582
ag1
(g5
S'\x93\xa3\x1a<'
p4583
tp4584
Rp4585
ag1
(g5
S'uU!<'
p4586
tp4587
Rp4588
ag1
(g5
S'\x1b\x9e <'
p4589
tp4590
Rp4591
ag1
(g5
S'\xd6\xbb\x1f<'
p4592
tp4593
Rp4594
ag1
(g5
S'\r\x11+<'
p4595
tp4596
Rp4597
ag1
(g5
S' \x9c&<'
p4598
tp4599
Rp4600
ag1
(g5
S'\x02\xd2#<'
p4601
tp4602
Rp4603
ag1
(g5
S'\xcc\x1e\x1d<'
p4604
tp4605
Rp4606
ag1
(g5
S'\xd2\xfe%<'
p4607
tp4608
Rp4609
ag1
(g5
S'\xe3e#<'
p4610
tp4611
Rp4612
ag1
(g5
S'7G\x1c<'
p4613
tp4614
Rp4615
ag1
(g5
S'*\x9c\x19<'
p4616
tp4617
Rp4618
ag1
(g5
S'z_\x10<'
p4619
tp4620
Rp4621
ag1
(g5
S'\x14e\x1e<'
p4622
tp4623
Rp4624
ag1
(g5
S'\xd3\xfe\x17<'
p4625
tp4626
Rp4627
ag1
(g5
S'\xf8\xf9\x18<'
p4628
tp4629
Rp4630
ag1
(g5
S'\xbfD\x15<'
p4631
tp4632
Rp4633
ag1
(g5
S'\xcau\x11<'
p4634
tp4635
Rp4636
ag1
(g5
S'\xb8 \x14<'
p4637
tp4638
Rp4639
ag1
(g5
S'\xbe-\x17<'
p4640
tp4641
Rp4642
ag1
(g5
S'Q\x80\x18<'
p4643
tp4644
Rp4645
ag1
(g5
S'kZ\x17<'
p4646
tp4647
Rp4648
ag1
(g5
S'\xf0c\x04<'
p4649
tp4650
Rp4651
ag1
(g5
S'\xf7L\x18<'
p4652
tp4653
Rp4654
ag1
(g5
S'\xa0\x90\x13<'
p4655
tp4656
Rp4657
ag1
(g5
S'\xdf\xf4\x11<'
p4658
tp4659
Rp4660
ag1
(g5
S'K\x92\x14<'
p4661
tp4662
Rp4663
ag1
(g5
S'\xe5\xb2\x1d<'
p4664
tp4665
Rp4666
ag1
(g5
S'dQ\x01<'
p4667
tp4668
Rp4669
ag1
(g5
S'~\\!<'
p4670
tp4671
Rp4672
ag1
(g5
S'(#\x1a<'
p4673
tp4674
Rp4675
ag1
(g5
S'\x9di\x1a<'
p4676
tp4677
Rp4678
ag1
(g5
S'-\xae\x14<'
p4679
tp4680
Rp4681
ag1
(g5
S'g$\x11<'
p4682
tp4683
Rp4684
ag1
(g5
S'\xbb"%<'
p4685
tp4686
Rp4687
ag1
(g5
S'\x99\xea\x18<'
p4688
tp4689
Rp4690
ag1
(g5
S'\x9a}\x16<'
p4691
tp4692
Rp4693
ag1
(g5
S'\x04h\x1b<'
p4694
tp4695
Rp4696
ag1
(g5
S'\xa0\xc6\x15<'
p4697
tp4698
Rp4699
ag1
(g5
S'\xe6\xa7\x1b<'
p4700
tp4701
Rp4702
ag1
(g5
S'\xdbk\x19<'
p4703
tp4704
Rp4705
ag1
(g5
S'/8\x0b<'
p4706
tp4707
Rp4708
ag1
(g5
S'\x88\xfc\x1c<'
p4709
tp4710
Rp4711
ag1
(g5
S'\xc7k\x1d<'
p4712
tp4713
Rp4714
ag1
(g5
S'<\xe9\x1d<'
p4715
tp4716
Rp4717
ag1
(g5
S'R\xd8\x07<'
p4718
tp4719
Rp4720
ag1
(g5
S'ba7<'
p4721
tp4722
Rp4723
ag1
(g5
S'\x84~\x06<'
p4724
tp4725
Rp4726
ag1
(g5
S')\xce\t<'
p4727
tp4728
Rp4729
ag1
(g5
S'\x80\xc7\x05<'
p4730
tp4731
Rp4732
ag1
(g5
S'+\n\x0b<'
p4733
tp4734
Rp4735
ag1
(g5
S'\x8dB\n<'
p4736
tp4737
Rp4738
ag1
(g5
S'\xa4\xb7\r<'
p4739
tp4740
Rp4741
ag1
(g5
S'\xa9\xac\xfe;'
p4742
tp4743
Rp4744
ag1
(g5
S'\x17\xdb\r<'
p4745
tp4746
Rp4747
ag1
(g5
S'v`\x05<'
p4748
tp4749
Rp4750
ag1
(g5
S'\xd6\xa8\x07<'
p4751
tp4752
Rp4753
ag1
(g5
S'\xfc\xe6\xf9;'
p4754
tp4755
Rp4756
ag1
(g5
S'\xfdh\x02<'
p4757
tp4758
Rp4759
ag1
(g5
S'E\xfc\n<'
p4760
tp4761
Rp4762
ag1
(g5
S'\xbcR\x08<'
p4763
tp4764
Rp4765
ag1
(g5
S'z\x1c\x08<'
p4766
tp4767
Rp4768
ag1
(g5
S'\xf5\xd5\r<'
p4769
tp4770
Rp4771
ag1
(g5
S'\x9a\x04\x0c<'
p4772
tp4773
Rp4774
ag1
(g5
S'\xe4w\x04<'
p4775
tp4776
Rp4777
ag1
(g5
S'\x88\x14\t<'
p4778
tp4779
Rp4780
ag1
(g5
S'\x88l\x10<'
p4781
tp4782
Rp4783
ag1
(g5
S'\xeb\xb3\x02<'
p4784
tp4785
Rp4786
ag1
(g5
S'T\xd8\t<'
p4787
tp4788
Rp4789
ag1
(g5
S'|q\x04<'
p4790
tp4791
Rp4792
ag1
(g5
S'\xb4K\x0c<'
p4793
tp4794
Rp4795
ag1
(g5
S'\xf7\xe6\n<'
p4796
tp4797
Rp4798
ag1
(g5
S'\xff4\x03<'
p4799
tp4800
Rp4801
ag1
(g5
S'\xe1\xdb\x06<'
p4802
tp4803
Rp4804
ag1
(g5
S'\x00\xea\x06<'
p4805
tp4806
Rp4807
ag1
(g5
S'\xa6\xbc\xff;'
p4808
tp4809
Rp4810
ag1
(g5
S'o\x02\x0c<'
p4811
tp4812
Rp4813
ag1
(g5
S'\xf6\xc2\x0b<'
p4814
tp4815
Rp4816
ag1
(g5
S'K\xf8\xf9;'
p4817
tp4818
Rp4819
ag1
(g5
S'fN\xeb;'
p4820
tp4821
Rp4822
ag1
(g5
S'\xb3\xda\x06<'
p4823
tp4824
Rp4825
ag1
(g5
S'\xbf\x18\x00<'
p4826
tp4827
Rp4828
ag1
(g5
S'.\xe0\xe9;'
p4829
tp4830
Rp4831
ag1
(g5
S'\xf0\xc7\xfc;'
p4832
tp4833
Rp4834
ag1
(g5
S'\xe5\x08\xfc;'
p4835
tp4836
Rp4837
ag1
(g5
S'\x18\x8c\xea;'
p4838
tp4839
Rp4840
ag1
(g5
S'\xf7\x16\xf7;'
p4841
tp4842
Rp4843
ag1
(g5
S'f\xd8\x03<'
p4844
tp4845
Rp4846
ag1
(g5
S'\xf2\x19\xef;'
p4847
tp4848
Rp4849
ag1
(g5
S'l`\x06<'
p4850
tp4851
Rp4852
ag1
(g5
S'\x02v\xfe;'
p4853
tp4854
Rp4855
ag1
(g5
S'/\xf8\xfc;'
p4856
tp4857
Rp4858
ag1
(g5
S'f\x0c\x00<'
p4859
tp4860
Rp4861
ag1
(g5
S'D\xa0\x03<'
p4862
tp4863
Rp4864
ag1
(g5
S'\xfcP\xf4;'
p4865
tp4866
Rp4867
ag1
(g5
S'\xfe\x1f\x08<'
p4868
tp4869
Rp4870
ag1
(g5
S'\x05\xd5\xfa;'
p4871
tp4872
Rp4873
ag1
(g5
S'\x00\xbc\xf1;'
p4874
tp4875
Rp4876
ag1
(g5
S' \xa6\x02<'
p4877
tp4878
Rp4879
ag1
(g5
S'\xc5:\xf6;'
p4880
tp4881
Rp4882
ag1
(g5
S'\xc1T\xee;'
p4883
tp4884
Rp4885
ag1
(g5
S'\xde\xd8\x03<'
p4886
tp4887
Rp4888
ag1
(g5
S'\xc2\xf0\xe0;'
p4889
tp4890
Rp4891
ag1
(g5
S'\xc4^\x00<'
p4892
tp4893
Rp4894
ag1
(g5
S'K\xbe\xf3;'
p4895
tp4896
Rp4897
ag1
(g5
S'\xd8\xd9\xdf;'
p4898
tp4899
Rp4900
ag1
(g5
S'\xf6\xd0\xdc;'
p4901
tp4902
Rp4903
ag1
(g5
S'!=\xde;'
p4904
tp4905
Rp4906
ag1
(g5
S'\xe2\x1e\xd7;'
p4907
tp4908
Rp4909
ag1
(g5
S'\n\\\xee;'
p4910
tp4911
Rp4912
ag1
(g5
S'\n$\xfa;'
p4913
tp4914
Rp4915
ag1
(g5
S'x\xe4\xf3;'
p4916
tp4917
Rp4918
ag1
(g5
S'j\xa9\xfa;'
p4919
tp4920
Rp4921
ag1
(g5
S'\xf8\x99\xf9;'
p4922
tp4923
Rp4924
ag1
(g5
S'\xa6N\xe9;'
p4925
tp4926
Rp4927
ag1
(g5
S'\x97D\xe7;'
p4928
tp4929
Rp4930
ag1
(g5
S'\xea|\xe8;'
p4931
tp4932
Rp4933
ag1
(g5
S'\x15R\xee;'
p4934
tp4935
Rp4936
ag1
(g5
S'\xc6\xe5\xb6;'
p4937
tp4938
Rp4939
ag1
(g5
S'\x9b"\xe7;'
p4940
tp4941
Rp4942
ag1
(g5
S'\x06\x98\xfd;'
p4943
tp4944
Rp4945
ag1
(g5
S'\x18#\x03<'
p4946
tp4947
Rp4948
ag1
(g5
S'\xca\xf4\xfe;'
p4949
tp4950
Rp4951
ag1
(g5
S'$T\xe8;'
p4952
tp4953
Rp4954
ag1
(g5
S' \xb1\xf0;'
p4955
tp4956
Rp4957
ag1
(g5
S'\xb7\xe9\xf3;'
p4958
tp4959
Rp4960
ag1
(g5
S'vt\xf6;'
p4961
tp4962
Rp4963
ag1
(g5
S'\x1b\xba\xec;'
p4964
tp4965
Rp4966
ag1
(g5
S'p\xc6\x02<'
p4967
tp4968
Rp4969
ag1
(g5
S'\x10\xe3\xed;'
p4970
tp4971
Rp4972
ag1
(g5
S'oo\x15<'
p4973
tp4974
Rp4975
ag1
(g5
S'\xe1H\xd8;'
p4976
tp4977
Rp4978
ag1
(g5
S'V*\xdb;'
p4979
tp4980
Rp4981
ag1
(g5
S'qD\xda;'
p4982
tp4983
Rp4984
ag1
(g5
S'\x04~\xf3;'
p4985
tp4986
Rp4987
ag1
(g5
S'B\xcf\xe4;'
p4988
tp4989
Rp4990
ag1
(g5
S'\xa8\x1a\xe8;'
p4991
tp4992
Rp4993
ag1
(g5
S'1\xd5\xe2;'
p4994
tp4995
Rp4996
ag1
(g5
S'X\x8c\xe4;'
p4997
tp4998
Rp4999
ag1
(g5
S'\x8d\xea\xe4;'
p5000
tp5001
Rp5002
ag1
(g5
S'\x9a\x1f\x02<'
p5003
tp5004
Rp5005
ag1
(g5
S'\xe8\xd1\xdc;'
p5006
tp5007
Rp5008
ag1
(g5
S'\x10\x8c\x11<'
p5009
tp5010
Rp5011
ag1
(g5
S'\r\xe7\xd7;'
p5012
tp5013
Rp5014
ag1
(g5
S'F\x10\xd3;'
p5015
tp5016
Rp5017
ag1
(g5
S'\x8f\xdc\xe7;'
p5018
tp5019
Rp5020
ag1
(g5
S'\xce\x82\xe0;'
p5021
tp5022
Rp5023
ag1
(g5
S'@\x08\xdb;'
p5024
tp5025
Rp5026
ag1
(g5
S'O&\xd3;'
p5027
tp5028
Rp5029
ag1
(g5
S't\xfd\xea;'
p5030
tp5031
Rp5032
ag1
(g5
S'\xfd\xd3\xf2;'
p5033
tp5034
Rp5035
ag1
(g5
S'\x0e$\xe6;'
p5036
tp5037
Rp5038
ag1
(g5
S'\x88v\xe4;'
p5039
tp5040
Rp5041
ag1
(g5
S'\xb6\xdb\xdf;'
p5042
tp5043
Rp5044
ag1
(g5
S'\xb4\x08\xe1;'
p5045
tp5046
Rp5047
ag1
(g5
S'DT\xd6;'
p5048
tp5049
Rp5050
ag1
(g5
S'\xdb\xf3\xc1;'
p5051
tp5052
Rp5053
ag1
(g5
S'z\xd7\xc6;'
p5054
tp5055
Rp5056
ag1
(g5
S'X\xe2\xbf;'
p5057
tp5058
Rp5059
ag1
(g5
S'r\xb0\xd6;'
p5060
tp5061
Rp5062
ag1
(g5
S'@I\xd2;'
p5063
tp5064
Rp5065
ag1
(g5
S'\xa8\xab\xc4;'
p5066
tp5067
Rp5068
ag1
(g5
S'\xaa\x9e\xc1;'
p5069
tp5070
Rp5071
ag1
(g5
S'\x8d\xf2\xc3;'
p5072
tp5073
Rp5074
ag1
(g5
S"'m\xc5;"
p5075
tp5076
Rp5077
ag1
(g5
S']\x00\xc1;'
p5078
tp5079
Rp5080
ag1
(g5
S't\x1d\xdb;'
p5081
tp5082
Rp5083
ag1
(g5
S'\xf4\xd6\xe3;'
p5084
tp5085
Rp5086
ag1
(g5
S'\xcd\x8a\xf1;'
p5087
tp5088
Rp5089
ag1
(g5
S't\xcb\xdf;'
p5090
tp5091
Rp5092
ag1
(g5
S'\n\xe0\xe7;'
p5093
tp5094
Rp5095
ag1
(g5
S'\xfc\x01\xfd;'
p5096
tp5097
Rp5098
ag1
(g5
S'\x9a,\xcc;'
p5099
tp5100
Rp5101
ag1
(g5
S'\xd0\xf5\xef;'
p5102
tp5103
Rp5104
ag1
(g5
S'C\x0e\xed;'
p5105
tp5106
Rp5107
ag1
(g5
S'z\x06\xda;'
p5108
tp5109
Rp5110
ag1
(g5
S'|\x94\x02<'
p5111
tp5112
Rp5113
ag1
(g5
S'\xb7\x9f\xf7;'
p5114
tp5115
Rp5116
ag1
(g5
S'\x8dX\xda;'
p5117
tp5118
Rp5119
ag1
(g5
S'\t\t\xff;'
p5120
tp5121
Rp5122
ag1
(g5
S'p\x8d\xff;'
p5123
tp5124
Rp5125
ag1
(g5
S'`\xcb\xfc;'
p5126
tp5127
Rp5128
ag1
(g5
S'\xd5\x02\xf8;'
p5129
tp5130
Rp5131
ag1
(g5
S'V\x05\x04<'
p5132
tp5133
Rp5134
ag1
(g5
S'P^\x07<'
p5135
tp5136
Rp5137
ag1
(g5
S'\xc2\xd1\xe2;'
p5138
tp5139
Rp5140
ag1
(g5
S':.\xef;'
p5141
tp5142
Rp5143
ag1
(g5
S'\x8e\xb3\xeb;'
p5144
tp5145
Rp5146
ag1
(g5
S'xs\xeb;'
p5147
tp5148
Rp5149
ag1
(g5
S'\\\\\xfb;'
p5150
tp5151
Rp5152
ag1
(g5
S'T\xbd\xbb;'
p5153
tp5154
Rp5155
ag1
(g5
S']\xb8%<'
p5156
tp5157
Rp5158
ag1
(g5
S'\xabf\x13<'
p5159
tp5160
Rp5161
ag1
(g5
S'\xba{.<'
p5162
tp5163
Rp5164
ag1
(g5
S'A\xbf-<'
p5165
tp5166
Rp5167
ag1
(g5
S'\xb4\xe7\x1e<'
p5168
tp5169
Rp5170
ag1
(g5
S'p\x07\x12<'
p5171
tp5172
Rp5173
ag1
(g5
S's\xf3#<'
p5174
tp5175
Rp5176
ag1
(g5
S'\x14@\x0e<'
p5177
tp5178
Rp5179
ag1
(g5
S"\xde\x1c'<"
p5180
tp5181
Rp5182
ag1
(g5
S'6\xe9(<'
p5183
tp5184
Rp5185
ag1
(g5
S"E\xcc'<"
p5186
tp5187
Rp5188
ag1
(g5
S'\xb0+\x07<'
p5189
tp5190
Rp5191
ag1
(g5
S'\xb3I-<'
p5192
tp5193
Rp5194
ag1
(g5
S'\n\x1c$<'
p5195
tp5196
Rp5197
ag1
(g5
S'\xba;2<'
p5198
tp5199
Rp5200
ag1
(g5
S'\x05\x0c9<'
p5201
tp5202
Rp5203
ag1
(g5
S'\x18\xec/<'
p5204
tp5205
Rp5206
ag1
(g5
S'\x9d\xe7)<'
p5207
tp5208
Rp5209
ag1
(g5
S'B/A<'
p5210
tp5211
Rp5212
ag1
(g5
S'x\xdb\x1f<'
p5213
tp5214
Rp5215
ag1
(g5
S'\xa4\x80/<'
p5216
tp5217
Rp5218
ag1
(g5
S']\x1c(<'
p5219
tp5220
Rp5221
ag1
(g5
S'=4\x19<'
p5222
tp5223
Rp5224
ag1
(g5
S'\x8a\x12*<'
p5225
tp5226
Rp5227
ag1
(g5
S'\x8f7\x03<'
p5228
tp5229
Rp5230
ag1
(g5
S'\x0b\xde\xe4;'
p5231
tp5232
Rp5233
ag1
(g5
S'\xfc\xc7\xa3;'
p5234
tp5235
Rp5236
ag1
(g5
S'w8m;'
p5237
tp5238
Rp5239
ag1
(g5
S'\xd4\xfc\x8b;'
p5240
tp5241
Rp5242
ag1
(g5
S'\xf2,\x8a;'
p5243
tp5244
Rp5245
ag1
(g5
S'\xb6\x85u;'
p5246
tp5247
Rp5248
ag1
(g5
S'b\xf4\x0f;'
p5249
tp5250
Rp5251
ag1
(g5
S'\xb2]p;'
p5252
tp5253
Rp5254
ag1
(g5
S'\x03>\xd2;'
p5255
tp5256
Rp5257
ag1
(g5
S'c6f;'
p5258
tp5259
Rp5260
ag1
(g5
S'r\xf9\x16;'
p5261
tp5262
Rp5263
ag1
(g5
S'1\xe1\xe3;'
p5264
tp5265
Rp5266
ag1
(g5
S'?\x05\xf3;'
p5267
tp5268
Rp5269
ag1
(g5
S'\x06@\xae;'
p5270
tp5271
Rp5272
ag1
(g5
S'\x14\x01m;'
p5273
tp5274
Rp5275
ag1
(g5
S'C\xd8/;'
p5276
tp5277
Rp5278
ag1
(g5
S'G\xea\x92;'
p5279
tp5280
Rp5281
ag1
(g5
S'-\xe0\xaa;'
p5282
tp5283
Rp5284
ag1
(g5
S'~-\x82;'
p5285
tp5286
Rp5287
ag1
(g5
S'\x1f\xa03;'
p5288
tp5289
Rp5290
ag1
(g5
S'\xbf]G;'
p5291
tp5292
Rp5293
ag1
(g5
S'\xc0\xc3j;'
p5294
tp5295
Rp5296
ag1
(g5
S'\xb2\xa9\x89;'
p5297
tp5298
Rp5299
ag1
(g5
S'N\xe2L;'
p5300
tp5301
Rp5302
ag1
(g5
S'-/\x1e;'
p5303
tp5304
Rp5305
ag1
(g5
S'\xb6\xaa\x0e;'
p5306
tp5307
Rp5308
ag1
(g5
S'*}\x07;'
p5309
tp5310
Rp5311
ag1
(g5
S'\xd4[!;'
p5312
tp5313
Rp5314
ag1
(g5
S'\xef\xf1#;'
p5315
tp5316
Rp5317
ag1
(g5
S'`/\x1b;'
p5318
tp5319
Rp5320
ag1
(g5
S'\xa6\xda\x0c;'
p5321
tp5322
Rp5323
ag1
(g5
S'24\x04;'
p5324
tp5325
Rp5326
ag1
(g5
S'\xba\xb9\x14;'
p5327
tp5328
Rp5329
ag1
(g5
S'\xf6\xf2\x13;'
p5330
tp5331
Rp5332
ag1
(g5
S'\xde7!;'
p5333
tp5334
Rp5335
ag1
(g5
S'ge\r;'
p5336
tp5337
Rp5338
ag1
(g5
S'\xf4\xb6\xfa:'
p5339
tp5340
Rp5341
ag1
(g5
S'\xa2\x19\x07;'
p5342
tp5343
Rp5344
ag1
(g5
S'\x82y\n;'
p5345
tp5346
Rp5347
ag1
(g5
S'\xfcC\r;'
p5348
tp5349
Rp5350
ag1
(g5
S'hb\x07;'
p5351
tp5352
Rp5353
ag1
(g5
S'B\xd8\n;'
p5354
tp5355
Rp5356
ag1
(g5
S'F\x82\xf4:'
p5357
tp5358
Rp5359
ag1
(g5
S'\xfb*\xf9:'
p5360
tp5361
Rp5362
ag1
(g5
S']a\x07;'
p5363
tp5364
Rp5365
ag1
(g5
S'\xb5\xe6\x05;'
p5366
tp5367
Rp5368
ag1
(g5
S'\x00\x07\xf7:'
p5369
tp5370
Rp5371
ag1
(g5
S'|\x10D<'
p5372
tp5373
Rp5374
ag1
(g5
S'\xa1\xd55<'
p5375
tp5376
Rp5377
ag1
(g5
S'D\xc29<'
p5378
tp5379
Rp5380
ag1
(g5
S'|\xe10<'
p5381
tp5382
Rp5383
ag1
(g5
S"\xd7\xd4'<"
p5384
tp5385
Rp5386
ag1
(g5
S'\xd4\x08)<'
p5387
tp5388
Rp5389
ag1
(g5
S'\xd2\x11:<'
p5390
tp5391
Rp5392
ag1
(g5
S'1H-<'
p5393
tp5394
Rp5395
ag1
(g5
S'G\xbc*<'
p5396
tp5397
Rp5398
ag1
(g5
S'\x9ed+<'
p5399
tp5400
Rp5401
ag1
(g5
S't\x1c.<'
p5402
tp5403
Rp5404
ag1
(g5
S'\xce\xddF<'
p5405
tp5406
Rp5407
ag1
(g5
S':\xc0\x84<'
p5408
tp5409
Rp5410
ag1
(g5
S'\xee\x05\x82<'
p5411
tp5412
Rp5413
ag1
(g5
S't\xa2\x84<'
p5414
tp5415
Rp5416
ag1
(g5
S'F\x81\x86<'
p5417
tp5418
Rp5419
ag1
(g5
S'\x885\x7f<'
p5420
tp5421
Rp5422
ag1
(g5
S'C\xa8}<'
p5423
tp5424
Rp5425
ag1
(g5
S'R\x10\x82<'
p5426
tp5427
Rp5428
ag1
(g5
S'\x9bs\x84<'
p5429
tp5430
Rp5431
ag1
(g5
S'\x02\x02\x84<'
p5432
tp5433
Rp5434
ag1
(g5
S'\xc6\xd5\x84<'
p5435
tp5436
Rp5437
ag1
(g5
S'4%\x85<'
p5438
tp5439
Rp5440
ag1
(g5
S'\x10\x98{<'
p5441
tp5442
Rp5443
ag1
(g5
S'\\u\x7f<'
p5444
tp5445
Rp5446
ag1
(g5
S'U6~<'
p5447
tp5448
Rp5449
ag1
(g5
S'!\xf6\x7f<'
p5450
tp5451
Rp5452
ag1
(g5
S'\x8b\x00\x86<'
p5453
tp5454
Rp5455
ag1
(g5
S'I[z<'
p5456
tp5457
Rp5458
ag1
(g5
S'\x06:\x81<'
p5459
tp5460
Rp5461
ag1
(g5
S'\xd8\xbd|<'
p5462
tp5463
Rp5464
ag1
(g5
S'\xb2\xb3|<'
p5465
tp5466
Rp5467
ag1
(g5
S'e\x04\x83<'
p5468
tp5469
Rp5470
ag1
(g5
S'\xf9Mu<'
p5471
tp5472
Rp5473
ag1
(g5
S'\xc0:\x7f<'
p5474
tp5475
Rp5476
ag1
(g5
S'\\3y<'
p5477
tp5478
Rp5479
ag1
(g5
S'g\xc2m<'
p5480
tp5481
Rp5482
ag1
(g5
S'@Fr<'
p5483
tp5484
Rp5485
ag1
(g5
S'\xee\ti<'
p5486
tp5487
Rp5488
ag1
(g5
S'-\x1fw<'
p5489
tp5490
Rp5491
ag1
(g5
S'(\xd5n<'
p5492
tp5493
Rp5494
ag1
(g5
S'K\x98w<'
p5495
tp5496
Rp5497
ag1
(g5
S'q\xefm<'
p5498
tp5499
Rp5500
ag1
(g5
S'\xf0\xc3r<'
p5501
tp5502
Rp5503
ag1
(g5
S'Y\x1dx<'
p5504
tp5505
Rp5506
ag1
(g5
S'\x1acw<'
p5507
tp5508
Rp5509
ag1
(g5
S'9\xe9{<'
p5510
tp5511
Rp5512
ag1
(g5
S'i\x8aa<'
p5513
tp5514
Rp5515
ag1
(g5
S'\x7f\xb0b<'
p5516
tp5517
Rp5518
ag1
(g5
S'\x93\xa0n<'
p5519
tp5520
Rp5521
ag1
(g5
S'H\xe7X<'
p5522
tp5523
Rp5524
ag1
(g5
S'\x86L`<'
p5525
tp5526
Rp5527
ag1
(g5
S'\xd0lq<'
p5528
tp5529
Rp5530
ag1
(g5
S'\xa0\xd1r<'
p5531
tp5532
Rp5533
ag1
(g5
S'\xde\x9f[<'
p5534
tp5535
Rp5536
ag1
(g5
S'\xce\xd5^<'
p5537
tp5538
Rp5539
ag1
(g5
S'\xc8Rd<'
p5540
tp5541
Rp5542
ag1
(g5
S'\x96\xf7`<'
p5543
tp5544
Rp5545
ag1
(g5
S'w\x8af<'
p5546
tp5547
Rp5548
ag1
(g5
S'2\xa7`<'
p5549
tp5550
Rp5551
ag1
(g5
S'\r%\xad;'
p5552
tp5553
Rp5554
ag1
(g5
S':5\xa7;'
p5555
tp5556
Rp5557
ag1
(g5
S'\xb5<\x95;'
p5558
tp5559
Rp5560
ag1
(g5
S'4N\xb7;'
p5561
tp5562
Rp5563
ag1
(g5
S'\x0f4\xb9;'
p5564
tp5565
Rp5566
ag1
(g5
S'\xad\xd8\xa1;'
p5567
tp5568
Rp5569
ag1
(g5
S'\xb8\x96\xaf;'
p5570
tp5571
Rp5572
ag1
(g5
S'Y\xc6\x9f;'
p5573
tp5574
Rp5575
ag1
(g5
S'\xa6J\xa1;'
p5576
tp5577
Rp5578
ag1
(g5
S':~\xb1;'
p5579
tp5580
Rp5581
ag1
(g5
S',@\xa9;'
p5582
tp5583
Rp5584
ag1
(g5
S'\x87\x8a\x93;'
p5585
tp5586
Rp5587
ag1
(g5
S'\xdaL\xfd:'
p5588
tp5589
Rp5590
ag1
(g5
S'H\x8c\x03;'
p5591
tp5592
Rp5593
ag1
(g5
S'\xe5\x85\xf9:'
p5594
tp5595
Rp5596
ag1
(g5
S'#\x01\xeb:'
p5597
tp5598
Rp5599
ag1
(g5
S'\x1a6\xf6:'
p5600
tp5601
Rp5602
ag1
(g5
S'>\x88\xf6:'
p5603
tp5604
Rp5605
ag1
(g5
S"|'\x01;"
p5606
tp5607
Rp5608
ag1
(g5
S'\xd7^\xed:'
p5609
tp5610
Rp5611
ag1
(g5
S'F:\x08;'
p5612
tp5613
Rp5614
ag1
(g5
S'h\xe1\xf2:'
p5615
tp5616
Rp5617
ag1
(g5
S'\xedC\x00;'
p5618
tp5619
Rp5620
ag1
(g5
S'i\x8c\xde:'
p5621
tp5622
Rp5623
ag1
(g5
S'\xa8I\x06<'
p5624
tp5625
Rp5626
ag1
(g5
S'K}\xe1;'
p5627
tp5628
Rp5629
ag1
(g5
S'\x94\xa9\xd4;'
p5630
tp5631
Rp5632
ag1
(g5
S'8\x95\xf1;'
p5633
tp5634
Rp5635
ag1
(g5
S'\xf6\xb9\xf5;'
p5636
tp5637
Rp5638
ag1
(g5
S'\tC\xdb;'
p5639
tp5640
Rp5641
ag1
(g5
S'%\x15\xea;'
p5642
tp5643
Rp5644
ag1
(g5
S'$\x1b\xc4;'
p5645
tp5646
Rp5647
ag1
(g5
S'xZ\x07<'
p5648
tp5649
Rp5650
ag1
(g5
S'\xa3\xff\xdc;'
p5651
tp5652
Rp5653
ag1
(g5
S'\x94\xb4\xde;'
p5654
tp5655
Rp5656
ag1
(g5
S'\x9e\x9f\x1b<'
p5657
tp5658
Rp5659
ag1
(g5
S'\x8c\x07*<'
p5660
tp5661
Rp5662
ag1
(g5
S'j\xc4)<'
p5663
tp5664
Rp5665
ag1
(g5
S'\xf4?7<'
p5666
tp5667
Rp5668
ag1
(g5
S'"\xaf-<'
p5669
tp5670
Rp5671
ag1
(g5
S'\xb0C*<'
p5672
tp5673
Rp5674
ag1
(g5
S'C\x80/<'
p5675
tp5676
Rp5677
ag1
(g5
S'\x9d\x13(<'
p5678
tp5679
Rp5680
ag1
(g5
S'xu.<'
p5681
tp5682
Rp5683
ag1
(g5
S'\x8a\xac;<'
p5684
tp5685
Rp5686
ag1
(g5
S'z\x1b(<'
p5687
tp5688
Rp5689
ag1
(g5
S'\x8er6<'
p5690
tp5691
Rp5692
ag1
(g5
S'q\x1c\x17<'
p5693
tp5694
Rp5695
ag1
(g5
S' r2<'
p5696
tp5697
Rp5698
ag1
(g5
S'dS8<'
p5699
tp5700
Rp5701
ag1
(g5
S'\xb0\xfb/<'
p5702
tp5703
Rp5704
ag1
(g5
S'\xe4c=<'
p5705
tp5706
Rp5707
ag1
(g5
S'\xb6g+<'
p5708
tp5709
Rp5710
ag1
(g5
S'A!1<'
p5711
tp5712
Rp5713
ag1
(g5
S'v\xd70<'
p5714
tp5715
Rp5716
ag1
(g5
S'\x9e%0<'
p5717
tp5718
Rp5719
ag1
(g5
S'(\xa5\x1d<'
p5720
tp5721
Rp5722
ag1
(g5
S'\x9e\xd53<'
p5723
tp5724
Rp5725
ag1
(g5
S'\xe2\xccC<'
p5726
tp5727
Rp5728
ag1
(g5
S'(\xeb3<'
p5729
tp5730
Rp5731
ag1
(g5
S'\xe7\xf7\x11<'
p5732
tp5733
Rp5734
ag1
(g5
S'\xc1\xec\x10<'
p5735
tp5736
Rp5737
ag1
(g5
S'\xfaC <'
p5738
tp5739
Rp5740
ag1
(g5
S'\xf1\xfe\x1c<'
p5741
tp5742
Rp5743
ag1
(g5
S'\x83\x82\x0f<'
p5744
tp5745
Rp5746
ag1
(g5
S'\x11\x9d\x1a<'
p5747
tp5748
Rp5749
ag1
(g5
S'\x90\xfa\x13<'
p5750
tp5751
Rp5752
ag1
(g5
S'~\xf8\x14<'
p5753
tp5754
Rp5755
ag1
(g5
S'\xbe\x07\x1c<'
p5756
tp5757
Rp5758
ag1
(g5
S'\x9d\xee\n<'
p5759
tp5760
Rp5761
ag1
(g5
S'f-\x12<'
p5762
tp5763
Rp5764
ag1
(g5
S'\x9a\x0b\x0b<'
p5765
tp5766
Rp5767
ag1
(g5
S'\xbbz\x04<'
p5768
tp5769
Rp5770
ag1
(g5
S'\xf8L <'
p5771
tp5772
Rp5773
ag1
(g5
S'\xff\xb3\x06<'
p5774
tp5775
Rp5776
ag1
(g5
S'\xee\x80\x0e<'
p5777
tp5778
Rp5779
ag1
(g5
S'<\xd6\x12<'
p5780
tp5781
Rp5782
ag1
(g5
S'\xa8g\x0e<'
p5783
tp5784
Rp5785
ag1
(g5
S'&\x18\x0c<'
p5786
tp5787
Rp5788
ag1
(g5
S'5\xe0\x17<'
p5789
tp5790
Rp5791
ag1
(g5
S' \x9a\x14<'
p5792
tp5793
Rp5794
ag1
(g5
S':\xc4\x16<'
p5795
tp5796
Rp5797
ag1
(g5
S'\xb2"\x13<'
p5798
tp5799
Rp5800
ag1
(g5
S"\xfa\x86'<"
p5801
tp5802
Rp5803
ag1
(g5
S'K/\xee;'
p5804
tp5805
Rp5806
ag1
(g5
S'\x0b_\xed;'
p5807
tp5808
Rp5809
ag1
(g5
S'\xb6\x9e\xe4;'
p5810
tp5811
Rp5812
ag1
(g5
S'\xbc\xb7\xed;'
p5813
tp5814
Rp5815
ag1
(g5
S'`e\x03<'
p5816
tp5817
Rp5818
ag1
(g5
S'v>\xf4;'
p5819
tp5820
Rp5821
ag1
(g5
S'\x80\x14\xf0;'
p5822
tp5823
Rp5824
ag1
(g5
S'z:\xe4;'
p5825
tp5826
Rp5827
ag1
(g5
S'\x86a\xf6;'
p5828
tp5829
Rp5830
ag1
(g5
S'\xac\xda\xed;'
p5831
tp5832
Rp5833
ag1
(g5
S'\xdb\xb4\xf6;'
p5834
tp5835
Rp5836
ag1
(g5
S'{\xea\xfc;'
p5837
tp5838
Rp5839
ag1
(g5
S'\xa7,\xf4;'
p5840
tp5841
Rp5842
ag1
(g5
S'\xadz\x01<'
p5843
tp5844
Rp5845
ag1
(g5
S'\xe3M\x02<'
p5846
tp5847
Rp5848
ag1
(g5
S'\xa7\x85\xef;'
p5849
tp5850
Rp5851
ag1
(g5
S'\xfc\xe7\xf4;'
p5852
tp5853
Rp5854
ag1
(g5
S'\xad\xd7\xfb;'
p5855
tp5856
Rp5857
ag1
(g5
S'\x1c\xe9\xfb;'
p5858
tp5859
Rp5860
ag1
(g5
S'\xbf\xf0\xfb;'
p5861
tp5862
Rp5863
ag1
(g5
S'C\xc2\xfe;'
p5864
tp5865
Rp5866
ag1
(g5
S'X\x0f\xde;'
p5867
tp5868
Rp5869
ag1
(g5
S"q'\x03<"
p5870
tp5871
Rp5872
ag1
(g5
S'M)\xe0;'
p5873
tp5874
Rp5875
ag1
(g5
S'\xdbq\x00<'
p5876
tp5877
Rp5878
ag1
(g5
S'\xb7\xe1\x04<'
p5879
tp5880
Rp5881
ag1
(g5
S'H\xbb\xdf;'
p5882
tp5883
Rp5884
ag1
(g5
S'\x97\xd8\x07<'
p5885
tp5886
Rp5887
ag1
(g5
S'\x189\xed;'
p5888
tp5889
Rp5890
ag1
(g5
S'\xb63\xd7;'
p5891
tp5892
Rp5893
ag1
(g5
S'\x8a\r\xf2;'
p5894
tp5895
Rp5896
ag1
(g5
S'\x8dH\x04<'
p5897
tp5898
Rp5899
ag1
(g5
S'T\x81\t<'
p5900
tp5901
Rp5902
ag1
(g5
S'#/\xe9;'
p5903
tp5904
Rp5905
ag1
(g5
S'\xcf\xd7\xf2;'
p5906
tp5907
Rp5908
ag1
(g5
S'\xe4\xfb\xf8;'
p5909
tp5910
Rp5911
ag1
(g5
S'4\xe9\xdc;'
p5912
tp5913
Rp5914
ag1
(g5
S'pB\xe5;'
p5915
tp5916
Rp5917
ag1
(g5
S'\xce]\xe0;'
p5918
tp5919
Rp5920
ag1
(g5
S't\x81\xee;'
p5921
tp5922
Rp5923
ag1
(g5
S'F\xe8\xdc;'
p5924
tp5925
Rp5926
ag1
(g5
S'\xf6\xae\xe0;'
p5927
tp5928
Rp5929
ag1
(g5
S'f/\xdb;'
p5930
tp5931
Rp5932
ag1
(g5
S'\xc0\xe0\xdc;'
p5933
tp5934
Rp5935
ag1
(g5
S'R-\xdb;'
p5936
tp5937
Rp5938
ag1
(g5
S'l`\xdc;'
p5939
tp5940
Rp5941
ag1
(g5
S'\xc3,\xed;'
p5942
tp5943
Rp5944
ag1
(g5
S'\xccB\xe8;'
p5945
tp5946
Rp5947
ag1
(g5
S'\xce\xa3\xe5;'
p5948
tp5949
Rp5950
ag1
(g5
S'\xac\xd7\xda;'
p5951
tp5952
Rp5953
ag1
(g5
S'0E\xd9;'
p5954
tp5955
Rp5956
ag1
(g5
S'\xd0\xe0\xeb;'
p5957
tp5958
Rp5959
ag1
(g5
S'_\x0c\xe0;'
p5960
tp5961
Rp5962
ag1
(g5
S'J\xad\xe0;'
p5963
tp5964
Rp5965
ag1
(g5
S'\xfb\xd7\xce;'
p5966
tp5967
Rp5968
ag1
(g5
S'\xba\xfd\xd6;'
p5969
tp5970
Rp5971
ag1
(g5
S'\xf1\x1b\xec;'
p5972
tp5973
Rp5974
ag1
(g5
S'\xf8\x84\xde;'
p5975
tp5976
Rp5977
ag1
(g5
S'\xf5\x06\xd7;'
p5978
tp5979
Rp5980
ag1
(g5
S'VS\xd2;'
p5981
tp5982
Rp5983
ag1
(g5
S'\xc6d\xdb;'
p5984
tp5985
Rp5986
ag1
(g5
S'\xban\xdf;'
p5987
tp5988
Rp5989
ag1
(g5
S'\x8d\xa9\xe6;'
p5990
tp5991
Rp5992
ag1
(g5
S'\x0b\x0b\xca;'
p5993
tp5994
Rp5995
ag1
(g5
S'\x8c?\xf0;'
p5996
tp5997
Rp5998
ag1
(g5
S'^\xa5\xd7;'
p5999
tp6000
Rp6001
ag1
(g5
S'\xba\x9f\xf2;'
p6002
tp6003
Rp6004
ag1
(g5
S'\xb6+\xd3;'
p6005
tp6006
Rp6007
ag1
(g5
S'""\xf2;'
p6008
tp6009
Rp6010
ag1
(g5
S'\x7f\r\xdf;'
p6011
tp6012
Rp6013
ag1
(g5
S'\x08~\xcd;'
p6014
tp6015
Rp6016
ag1
(g5
S'\xe0\xe2\xde;'
p6017
tp6018
Rp6019
ag1
(g5
S'\x9c\r\xc6;'
p6020
tp6021
Rp6022
ag1
(g5
S'\x84\xc8\xea;'
p6023
tp6024
Rp6025
ag1
(g5
S'\xbe@\xcb;'
p6026
tp6027
Rp6028
ag1
(g5
S'\\\x97\xcf;'
p6029
tp6030
Rp6031
ag1
(g5
S'\xb2,\xc7;'
p6032
tp6033
Rp6034
ag1
(g5
S'\x0cL\xd5;'
p6035
tp6036
Rp6037
ag1
(g5
S'xO\xca;'
p6038
tp6039
Rp6040
ag1
(g5
S'\xf1\xd8\xc3;'
p6041
tp6042
Rp6043
ag1
(g5
S'\xef\x9b\xbb;'
p6044
tp6045
Rp6046
ag1
(g5
S'\x84o\xc2;'
p6047
tp6048
Rp6049
ag1
(g5
S'dh\xd0;'
p6050
tp6051
Rp6052
ag1
(g5
S'\xd9\xb7\xbb;'
p6053
tp6054
Rp6055
ag1
(g5
S'Z\xe8\xd0;'
p6056
tp6057
Rp6058
ag1
(g5
S'@\xd2\xd9;'
p6059
tp6060
Rp6061
ag1
(g5
S'T\xee\xd1;'
p6062
tp6063
Rp6064
ag1
(g5
S'\x04#\xde;'
p6065
tp6066
Rp6067
ag1
(g5
S'\xafm\xce;'
p6068
tp6069
Rp6070
ag1
(g5
S'\x04\x94\xd1;'
p6071
tp6072
Rp6073
ag1
(g5
S'B)\xcf;'
p6074
tp6075
Rp6076
ag1
(g5
S'\xc6\xc5\xd2;'
p6077
tp6078
Rp6079
ag1
(g5
S'V\xc2\xd9;'
p6080
tp6081
Rp6082
ag1
(g5
S'0/\xd5;'
p6083
tp6084
Rp6085
ag1
(g5
S'\xeb"\xe9;'
p6086
tp6087
Rp6088
ag1
(g5
S"\xfa'\xc9;"
p6089
tp6090
Rp6091
ag1
(g5
S'\xf9Y\xeb;'
p6092
tp6093
Rp6094
ag1
(g5
S's\xce\xf6;'
p6095
tp6096
Rp6097
ag1
(g5
S'\x91p\xfd;'
p6098
tp6099
Rp6100
ag1
(g5
S'\xfa6\xdd;'
p6101
tp6102
Rp6103
ag1
(g5
S'\x15l\x06<'
p6104
tp6105
Rp6106
ag1
(g5
S'6(\xee;'
p6107
tp6108
Rp6109
ag1
(g5
S'\xab`\xf5;'
p6110
tp6111
Rp6112
ag1
(g5
S'*\xa5\xf3;'
p6113
tp6114
Rp6115
ag1
(g5
S'\xcf\x1b\xf1;'
p6116
tp6117
Rp6118
ag1
(g5
S'\xf80\xdd;'
p6119
tp6120
Rp6121
ag1
(g5
S'\x8e7\xe3;'
p6122
tp6123
Rp6124
ag1
(g5
S'\x12s\xee;'
p6125
tp6126
Rp6127
ag1
(g5
S'\xce\x84\xc0;'
p6128
tp6129
Rp6130
ag1
(g5
S'\xd6\xa7\xb4;'
p6131
tp6132
Rp6133
ag1
(g5
S':=\xbc;'
p6134
tp6135
Rp6136
ag1
(g5
S'\x1cR\xc7;'
p6137
tp6138
Rp6139
ag1
(g5
S'\x90Z\xbf;'
p6140
tp6141
Rp6142
ag1
(g5
S'3\x03\xc5;'
p6143
tp6144
Rp6145
ag1
(g5
S'\x0e\xbb\xc5;'
p6146
tp6147
Rp6148
ag1
(g5
S'\xc2&\xc1;'
p6149
tp6150
Rp6151
ag1
(g5
S'\x90S\xbb;'
p6152
tp6153
Rp6154
ag1
(g5
S'%\xb4\xcd;'
p6155
tp6156
Rp6157
ag1
(g5
S'D>\xb8;'
p6158
tp6159
Rp6160
ag1
(g5
S'\x8f5\xbd;'
p6161
tp6162
Rp6163
ag1
(g5
S'$\x0b\xd0;'
p6164
tp6165
Rp6166
ag1
(g5
S'\xb8!\xe5;'
p6167
tp6168
Rp6169
ag1
(g5
S'\xb90\xaf;'
p6170
tp6171
Rp6172
ag1
(g5
S'\x86f\xc4;'
p6173
tp6174
Rp6175
ag1
(g5
S'\x15T\xbc;'
p6176
tp6177
Rp6178
ag1
(g5
S'\x85\xb2\xca;'
p6179
tp6180
Rp6181
ag1
(g5
S'l\x08\xc1;'
p6182
tp6183
Rp6184
ag1
(g5
S'\xa8\x1b\xbe;'
p6185
tp6186
Rp6187
ag1
(g5
S'\xa3M\xc8;'
p6188
tp6189
Rp6190
ag1
(g5
S'\x8e\xdc\xd1;'
p6191
tp6192
Rp6193
ag1
(g5
S'\xb3{\xd0;'
p6194
tp6195
Rp6196
ag1
(g5
S'"S\x91;'
p6197
tp6198
Rp6199
ag1
(g5
S'\xac\xc1\xba;'
p6200
tp6201
Rp6202
ag1
(g5
S'\xbb|\xb8;'
p6203
tp6204
Rp6205
ag1
(g5
S'k\r\xa0;'
p6206
tp6207
Rp6208
ag1
(g5
S'\xf5\xf9\xbb;'
p6209
tp6210
Rp6211
ag1
(g5
S'vz\xb6;'
p6212
tp6213
Rp6214
ag1
(g5
S'\x90\x9b\xbd;'
p6215
tp6216
Rp6217
ag1
(g5
S'\x87\x83\xbf;'
p6218
tp6219
Rp6220
ag1
(g5
S'\x8ar\xa8;'
p6221
tp6222
Rp6223
ag1
(g5
S'\xee\xf8\xb5;'
p6224
tp6225
Rp6226
ag1
(g5
S'\xd0J\xb1;'
p6227
tp6228
Rp6229
ag1
(g5
S'\xce\xcc\xb9;'
p6230
tp6231
Rp6232
ag1
(g5
S'G%\xc5;'
p6233
tp6234
Rp6235
ag1
(g5
S'\xe5-@<'
p6236
tp6237
Rp6238
ag1
(g5
S'\xcc\xd0.<'
p6239
tp6240
Rp6241
ag1
(g5
S'\x0eu\x0f<'
p6242
tp6243
Rp6244
ag1
(g5
S'\xd367<'
p6245
tp6246
Rp6247
ag1
(g5
S'G\xae\x1f<'
p6248
tp6249
Rp6250
ag1
(g5
S'\xaa+><'
p6251
tp6252
Rp6253
ag1
(g5
S'\x96\xfb+<'
p6254
tp6255
Rp6256
ag1
(g5
S'\xcc\x9f\x1d<'
p6257
tp6258
Rp6259
ag1
(g5
S'C\xc0/<'
p6260
tp6261
Rp6262
ag1
(g5
S'n~%<'
p6263
tp6264
Rp6265
ag1
(g5
S'p=\x1c<'
p6266
tp6267
Rp6268
ag1
(g5
S'\xc88\x16<'
p6269
tp6270
Rp6271
ag1
(g5
S'\x03zk<'
p6272
tp6273
Rp6274
ag1
(g5
S'RDc<'
p6275
tp6276
Rp6277
ag1
(g5
S'\xf8\xd4r<'
p6278
tp6279
Rp6280
ag1
(g5
S'\x87\x02n<'
p6281
tp6282
Rp6283
ag1
(g5
S'$5k<'
p6284
tp6285
Rp6286
ag1
(g5
S'\xc6\x85Y<'
p6287
tp6288
Rp6289
ag1
(g5
S'"\xbcS<'
p6290
tp6291
Rp6292
ag1
(g5
S'L\xafc<'
p6293
tp6294
Rp6295
ag1
(g5
S"\xfb'h<"
p6296
tp6297
Rp6298
ag1
(g5
S'\x856c<'
p6299
tp6300
Rp6301
ag1
(g5
S'\xee\x8ab<'
p6302
tp6303
Rp6304
ag1
(g5
S'Zn:<'
p6305
tp6306
Rp6307
ag1
(g5
S'\x82\xa0\x17;'
p6308
tp6309
Rp6310
ag1
(g5
S'6` ;'
p6311
tp6312
Rp6313
ag1
(g5
S'\x19\x81(;'
p6314
tp6315
Rp6316
ag1
(g5
S'W\xd5\x13;'
p6317
tp6318
Rp6319
ag1
(g5
S'\x126\x06;'
p6320
tp6321
Rp6322
ag1
(g5
S'\x1e\r\x1b;'
p6323
tp6324
Rp6325
ag1
(g5
S'\xbaC\x0e;'
p6326
tp6327
Rp6328
ag1
(g5
S'V\xef\x1b;'
p6329
tp6330
Rp6331
ag1
(g5
S'x\xc8\x0b;'
p6332
tp6333
Rp6334
ag1
(g5
S',l\x12;'
p6335
tp6336
Rp6337
ag1
(g5
S'j\xd2\n;'
p6338
tp6339
Rp6340
ag1
(g5
S'\xd6\x18\r;'
p6341
tp6342
Rp6343
ag1
(g5
S'!4\xfe;'
p6344
tp6345
Rp6346
ag1
(g5
S'\xe0C\x08<'
p6347
tp6348
Rp6349
ag1
(g5
S'b[\x0c<'
p6350
tp6351
Rp6352
ag1
(g5
S'\x7f4\x0c<'
p6353
tp6354
Rp6355
ag1
(g5
S'\xce\x93\xf3;'
p6356
tp6357
Rp6358
ag1
(g5
S'\xa8@\x01<'
p6359
tp6360
Rp6361
ag1
(g5
S'$H\xf2;'
p6362
tp6363
Rp6364
ag1
(g5
S'\xb8\x1c\xfb;'
p6365
tp6366
Rp6367
ag1
(g5
S'C\xe4\x02<'
p6368
tp6369
Rp6370
ag1
(g5
S'\x94\xe6\xf1;'
p6371
tp6372
Rp6373
ag1
(g5
S'\xfc\x92\xdc;'
p6374
tp6375
Rp6376
ag1
(g5
S'\xf1\x8d\xe3;'
p6377
tp6378
Rp6379
ag1
(g5
S'8o <'
p6380
tp6381
Rp6382
ag1
(g5
S'\x80\xf7"<'
p6383
tp6384
Rp6385
ag1
(g5
S'\xe9\x8b\x1c<'
p6386
tp6387
Rp6388
ag1
(g5
S'\xfd\xf7!<'
p6389
tp6390
Rp6391
ag1
(g5
S'\xcf\xef\x1b<'
p6392
tp6393
Rp6394
ag1
(g5
S'\x89\x0c$<'
p6395
tp6396
Rp6397
ag1
(g5
S'\xc69 <'
p6398
tp6399
Rp6400
ag1
(g5
S'Ut\x1e<'
p6401
tp6402
Rp6403
ag1
(g5
S'\xe1\xd2\x18<'
p6404
tp6405
Rp6406
ag1
(g5
S'\xd2?\x17<'
p6407
tp6408
Rp6409
ag1
(g5
S'<\xd5\x1e<'
p6410
tp6411
Rp6412
ag1
(g5
S'\xf0\xac\x1f<'
p6413
tp6414
Rp6415
ag1
(g5
S'k\x1e\x1c<'
p6416
tp6417
Rp6418
ag1
(g5
S'\xa1A\x0e<'
p6419
tp6420
Rp6421
ag1
(g5
S'\xcd\xfb\x11<'
p6422
tp6423
Rp6424
ag1
(g5
S'3\xf1\x12<'
p6425
tp6426
Rp6427
ag1
(g5
S'6\xc2\x0e<'
p6428
tp6429
Rp6430
ag1
(g5
S'\x9dS\x11<'
p6431
tp6432
Rp6433
ag1
(g5
S'z\x06\x16<'
p6434
tp6435
Rp6436
ag1
(g5
S'<\xf1\x17<'
p6437
tp6438
Rp6439
ag1
(g5
S'\x82\xa2\x14<'
p6440
tp6441
Rp6442
ag1
(g5
S'T\xd4\x1a<'
p6443
tp6444
Rp6445
ag1
(g5
S'p\r\x0b<'
p6446
tp6447
Rp6448
ag1
(g5
S'*\x1e\x08<'
p6449
tp6450
Rp6451
ag1
(g5
S'\xf6\x08\x1b<'
p6452
tp6453
Rp6454
ag1
(g5
S'JY\xff;'
p6455
tp6456
Rp6457
ag1
(g5
S'\xb4u\x12<'
p6458
tp6459
Rp6460
ag1
(g5
S'M\xa2\x14<'
p6461
tp6462
Rp6463
ag1
(g5
S'-\x95\x19<'
p6464
tp6465
Rp6466
ag1
(g5
S'\xe9\xd0\x10<'
p6467
tp6468
Rp6469
ag1
(g5
S'\xe8\xbf\x1b<'
p6470
tp6471
Rp6472
ag1
(g5
S'\x7f\x89\x14<'
p6473
tp6474
Rp6475
ag1
(g5
S'\x87\xf9\x17<'
p6476
tp6477
Rp6478
ag1
(g5
S'\xc8\x93\n<'
p6479
tp6480
Rp6481
ag1
(g5
S'\xb41\x0b<'
p6482
tp6483
Rp6484
ag1
(g5
S'3\xb6,<'
p6485
tp6486
Rp6487
ag1
(g5
S'Rg\x16<'
p6488
tp6489
Rp6490
ag1
(g5
S'\xf4\x83\x0c<'
p6491
tp6492
Rp6493
ag1
(g5
S'K\xdd\x13<'
p6494
tp6495
Rp6496
ag1
(g5
S'\xf4\xf2\x13<'
p6497
tp6498
Rp6499
ag1
(g5
S'\x03_\x10<'
p6500
tp6501
Rp6502
ag1
(g5
S'\x92\xd2\x17<'
p6503
tp6504
Rp6505
ag1
(g5
S'H\x8f\x14<'
p6506
tp6507
Rp6508
ag1
(g5
S'w\x13\x1c<'
p6509
tp6510
Rp6511
ag1
(g5
S'\x98\n\x1c<'
p6512
tp6513
Rp6514
ag1
(g5
S'\xde\xd9\x13<'
p6515
tp6516
Rp6517
ag1
(g5
S'\r\x9d\x12<'
p6518
tp6519
Rp6520
ag1
(g5
S"Jb'<"
p6521
tp6522
Rp6523
ag1
(g5
S'\xba9\x0b<'
p6524
tp6525
Rp6526
ag1
(g5
S'&\xc7\x01<'
p6527
tp6528
Rp6529
ag1
(g5
S'\xc2k\x05<'
p6530
tp6531
Rp6532
ag1
(g5
S'\xbe\x15\x13<'
p6533
tp6534
Rp6535
ag1
(g5
S'\x14\x95\xf0;'
p6536
tp6537
Rp6538
ag1
(g5
S'\x9b\xf6\xef;'
p6539
tp6540
Rp6541
ag1
(g5
S'\x1b>\x05<'
p6542
tp6543
Rp6544
ag1
(g5
S'\xd8\xc4\x07<'
p6545
tp6546
Rp6547
ag1
(g5
S'\x82\xee\t<'
p6548
tp6549
Rp6550
ag1
(g5
S'\x9dC\xfe;'
p6551
tp6552
Rp6553
ag1
(g5
S'\x81\xd0\t<'
p6554
tp6555
Rp6556
ag1
(g5
S'\xb3I\xfb;'
p6557
tp6558
Rp6559
ag1
(g5
S'\x0f\x84\x01<'
p6560
tp6561
Rp6562
ag1
(g5
S'\xc8\xeb\x07<'
p6563
tp6564
Rp6565
ag1
(g5
S'i+\x02<'
p6566
tp6567
Rp6568
ag1
(g5
S'\x18\x9c\x0c<'
p6569
tp6570
Rp6571
ag1
(g5
S'\xac=\xed;'
p6572
tp6573
Rp6574
ag1
(g5
S'\x04\x0c\x13<'
p6575
tp6576
Rp6577
ag1
(g5
S'q\x88\x08<'
p6578
tp6579
Rp6580
ag1
(g5
S'\xe3a\x08<'
p6581
tp6582
Rp6583
ag1
(g5
S'\xc4\xba\x15<'
p6584
tp6585
Rp6586
ag1
(g5
S'.\x92\xfc;'
p6587
tp6588
Rp6589
ag1
(g5
S'\xe3A\x03<'
p6590
tp6591
Rp6592
ag1
(g5
S'v\xc4\x06<'
p6593
tp6594
Rp6595
ag1
(g5
S'\xa2\xa5\x01<'
p6596
tp6597
Rp6598
ag1
(g5
S'\\\xff\xf2;'
p6599
tp6600
Rp6601
ag1
(g5
S'<\r\xf3;'
p6602
tp6603
Rp6604
ag1
(g5
S'\xe1\xba\n<'
p6605
tp6606
Rp6607
ag1
(g5
S'\x8e\xcf\xfc;'
p6608
tp6609
Rp6610
ag1
(g5
S'\xa4\x1f\x02<'
p6611
tp6612
Rp6613
ag1
(g5
S'\xb7W\x07<'
p6614
tp6615
Rp6616
ag1
(g5
S'\xc1F\x03<'
p6617
tp6618
Rp6619
ag1
(g5
S'$\x11\xfd;'
p6620
tp6621
Rp6622
ag1
(g5
S'*}\x01<'
p6623
tp6624
Rp6625
ag1
(g5
S'\xb8>\x05<'
p6626
tp6627
Rp6628
ag1
(g5
S'\xd8J\x05<'
p6629
tp6630
Rp6631
ag1
(g5
S'\xc3\x95\xf8;'
p6632
tp6633
Rp6634
ag1
(g5
S'\xb5\xee\xf3;'
p6635
tp6636
Rp6637
ag1
(g5
S'\xd4\xef\xf4;'
p6638
tp6639
Rp6640
ag1
(g5
S'\xd87\xea;'
p6641
tp6642
Rp6643
ag1
(g5
S'\\\x14\xf4;'
p6644
tp6645
Rp6646
ag1
(g5
S'\xac\xb1\xea;'
p6647
tp6648
Rp6649
ag1
(g5
S'F\x1b\xfd;'
p6650
tp6651
Rp6652
ag1
(g5
S'\xb7\x1f\x00<'
p6653
tp6654
Rp6655
ag1
(g5
S'\xb4\x1a\xea;'
p6656
tp6657
Rp6658
ag1
(g5
S'\xda_\x11<'
p6659
tp6660
Rp6661
ag1
(g5
S'^\x1c\xe6;'
p6662
tp6663
Rp6664
ag1
(g5
S'\x1e\xf9\x11<'
p6665
tp6666
Rp6667
ag1
(g5
S"'H\xf5;"
p6668
tp6669
Rp6670
ag1
(g5
S'd\x7f\xeb;'
p6671
tp6672
Rp6673
ag1
(g5
S'\x06\xe8\xfd;'
p6674
tp6675
Rp6676
ag1
(g5
S'\xc0\xf6\xdd;'
p6677
tp6678
Rp6679
ag1
(g5
S'D\x1b\x01<'
p6680
tp6681
Rp6682
ag1
(g5
S'MI\xeb;'
p6683
tp6684
Rp6685
ag1
(g5
S'\xe5\xe4\xf2;'
p6686
tp6687
Rp6688
ag1
(g5
S'\xfeG\xe9;'
p6689
tp6690
Rp6691
ag1
(g5
S'\xb6b\xff;'
p6692
tp6693
Rp6694
ag1
(g5
S':\x13\xfe;'
p6695
tp6696
Rp6697
ag1
(g5
S'\xb2\x9c\xdc;'
p6698
tp6699
Rp6700
ag1
(g5
S'F:\r<'
p6701
tp6702
Rp6703
ag1
(g5
S'\xb6\xe2\xf4;'
p6704
tp6705
Rp6706
ag1
(g5
S'\xb7g\xe4;'
p6707
tp6708
Rp6709
ag1
(g5
S'\xc8\xe7\xe9;'
p6710
tp6711
Rp6712
ag1
(g5
S'\xc2\xdc\xe6;'
p6713
tp6714
Rp6715
ag1
(g5
S'\x80h\xe3;'
p6716
tp6717
Rp6718
ag1
(g5
S'\xd84\xf0;'
p6719
tp6720
Rp6721
ag1
(g5
S'\xccF\xe3;'
p6722
tp6723
Rp6724
ag1
(g5
S'\xac\xcc\xd9;'
p6725
tp6726
Rp6727
ag1
(g5
S'\x94\x84\xd9;'
p6728
tp6729
Rp6730
ag1
(g5
S'\x1c\xf3\xee;'
p6731
tp6732
Rp6733
ag1
(g5
S'\\p\xeb;'
p6734
tp6735
Rp6736
ag1
(g5
S'\xc3V\xe2;'
p6737
tp6738
Rp6739
ag1
(g5
S'qQ\x01<'
p6740
tp6741
Rp6742
ag1
(g5
S'4_\xf9;'
p6743
tp6744
Rp6745
ag1
(g5
S'a\xe4\xf4;'
p6746
tp6747
Rp6748
ag1
(g5
S'\x8dG\xdb;'
p6749
tp6750
Rp6751
ag1
(g5
S'\x9e\xe7\xf6;'
p6752
tp6753
Rp6754
ag1
(g5
S'\x90D\xf3;'
p6755
tp6756
Rp6757
ag1
(g5
S'\xba3\xf1;'
p6758
tp6759
Rp6760
ag1
(g5
S'aT\xe7;'
p6761
tp6762
Rp6763
ag1
(g5
S'\xf0{\xe9;'
p6764
tp6765
Rp6766
ag1
(g5
S'\xea\x87\xe2;'
p6767
tp6768
Rp6769
ag1
(g5
S'\x9aP\x04<'
p6770
tp6771
Rp6772
ag1
(g5
S'-@\xed;'
p6773
tp6774
Rp6775
ag1
(g5
S'\xfe\x04\xf3;'
p6776
tp6777
Rp6778
ag1
(g5
S'\xe6Z\xda;'
p6779
tp6780
Rp6781
ag1
(g5
S'\xc5\x10\xe4;'
p6782
tp6783
Rp6784
ag1
(g5
S'\\\xd0\xe5;'
p6785
tp6786
Rp6787
ag1
(g5
S'N\x7f\xd4;'
p6788
tp6789
Rp6790
ag1
(g5
S'\xca3\xf2;'
p6791
tp6792
Rp6793
ag1
(g5
S'\x8a\xd5\xe4;'
p6794
tp6795
Rp6796
ag1
(g5
S'\xfa\xb3\xe1;'
p6797
tp6798
Rp6799
ag1
(g5
S'\x8d\x7f\xd4;'
p6800
tp6801
Rp6802
ag1
(g5
S'=\xbb\xe7;'
p6803
tp6804
Rp6805
ag1
(g5
S'hT\xdd;'
p6806
tp6807
Rp6808
ag1
(g5
S',6\xd6;'
p6809
tp6810
Rp6811
ag1
(g5
S"\x06'\xe8;"
p6812
tp6813
Rp6814
ag1
(g5
S'\xeaz\xdf;'
p6815
tp6816
Rp6817
ag1
(g5
S'\xc6\xc3\xdd;'
p6818
tp6819
Rp6820
ag1
(g5
S'\xc0*\xd9;'
p6821
tp6822
Rp6823
ag1
(g5
S'\x00\x94\xe9;'
p6824
tp6825
Rp6826
ag1
(g5
S'\xba\xdb\xe9;'
p6827
tp6828
Rp6829
ag1
(g5
S'\xc0j\xc0;'
p6830
tp6831
Rp6832
ag1
(g5
S's\x19\xd9;'
p6833
tp6834
Rp6835
ag1
(g5
S'\xbf\xd4\xc9;'
p6836
tp6837
Rp6838
ag1
(g5
S'z\xf4\xde;'
p6839
tp6840
Rp6841
ag1
(g5
S'\x8e\xd6\xe2;'
p6842
tp6843
Rp6844
ag1
(g5
S'D \xef;'
p6845
tp6846
Rp6847
ag1
(g5
S'\xa1\x90\xcb;'
p6848
tp6849
Rp6850
ag1
(g5
S'`d\xc5;'
p6851
tp6852
Rp6853
ag1
(g5
S'K\xfe\xcc;'
p6854
tp6855
Rp6856
ag1
(g5
S'H\xa3\xd0;'
p6857
tp6858
Rp6859
ag1
(g5
S'\x07A\xbc;'
p6860
tp6861
Rp6862
ag1
(g5
S'L\x1f\xbc;'
p6863
tp6864
Rp6865
ag1
(g5
S'D}\xce;'
p6866
tp6867
Rp6868
ag1
(g5
S'\x90w\xb2;'
p6869
tp6870
Rp6871
ag1
(g5
S'\x02\xc9\xc6;'
p6872
tp6873
Rp6874
ag1
(g5
S'b\xf3\xbf;'
p6875
tp6876
Rp6877
ag1
(g5
S'\xba8\xc9;'
p6878
tp6879
Rp6880
ag1
(g5
S'\xcfp\xc2;'
p6881
tp6882
Rp6883
ag1
(g5
S'\r\xc6\xdf;'
p6884
tp6885
Rp6886
ag1
(g5
S'\x9f{\xff;'
p6887
tp6888
Rp6889
ag1
(g5
S'\x05\xe5\xda;'
p6890
tp6891
Rp6892
ag1
(g5
S'\xdf \xeb;'
p6893
tp6894
Rp6895
ag1
(g5
S'\x07\x80\xe0;'
p6896
tp6897
Rp6898
ag1
(g5
S'\x92\x83\xce;'
p6899
tp6900
Rp6901
ag1
(g5
S'\x8d\xc5\xe3;'
p6902
tp6903
Rp6904
ag1
(g5
S'\xe8^\xe9;'
p6905
tp6906
Rp6907
ag1
(g5
S'\xd0t\xf0;'
p6908
tp6909
Rp6910
ag1
(g5
S'n\xd8\xf0;'
p6911
tp6912
Rp6913
ag1
(g5
S'\xaa\x10\xe7;'
p6914
tp6915
Rp6916
ag1
(g5
S'8 \xf0;'
p6917
tp6918
Rp6919
ag1
(g5
S'\x0eT\xfa;'
p6920
tp6921
Rp6922
ag1
(g5
S'\x01\xab\xfe;'
p6923
tp6924
Rp6925
ag1
(g5
S'\xef\x10\xeb;'
p6926
tp6927
Rp6928
ag1
(g5
S'\xb8\xac\xde;'
p6929
tp6930
Rp6931
ag1
(g5
S'\xb8o\xdf;'
p6932
tp6933
Rp6934
ag1
(g5
S'\x8c\xd5\xfe;'
p6935
tp6936
Rp6937
ag1
(g5
S'DN\n<'
p6938
tp6939
Rp6940
ag1
(g5
S'\x07\x1b\xff;'
p6941
tp6942
Rp6943
ag1
(g5
S'\xae+\xf1;'
p6944
tp6945
Rp6946
ag1
(g5
S' \xdf\xe3;'
p6947
tp6948
Rp6949
ag1
(g5
S'\n\x83\xe2;'
p6950
tp6951
Rp6952
ag1
(g5
S'\n3\xdd;'
p6953
tp6954
Rp6955
ag1
(g5
S'\xb2v\x10<'
p6956
tp6957
Rp6958
ag1
(g5
S'aU\x1a<'
p6959
tp6960
Rp6961
ag1
(g5
S'\x82\xbe\x1f<'
p6962
tp6963
Rp6964
ag1
(g5
S'\xea*!<'
p6965
tp6966
Rp6967
ag1
(g5
S'R\x17\x1b<'
p6968
tp6969
Rp6970
ag1
(g5
S"\xc6K'<"
p6971
tp6972
Rp6973
ag1
(g5
S'\xc5\xf3&<'
p6974
tp6975
Rp6976
ag1
(g5
S'\xf8\x81\x17<'
p6977
tp6978
Rp6979
ag1
(g5
S'\xd2\xfa!<'
p6980
tp6981
Rp6982
ag1
(g5
S'\x92\x1b\x17<'
p6983
tp6984
Rp6985
ag1
(g5
S'\xa6\x06,<'
p6986
tp6987
Rp6988
ag1
(g5
S'{w\x19<'
p6989
tp6990
Rp6991
ag1
(g5
S'\x86\xad&<'
p6992
tp6993
Rp6994
ag1
(g5
S'\xa6\xea*<'
p6995
tp6996
Rp6997
ag1
(g5
S'b\xf8)<'
p6998
tp6999
Rp7000
ag1
(g5
S'\xfdd-<'
p7001
tp7002
Rp7003
ag1
(g5
S'cb$<'
p7004
tp7005
Rp7006
ag1
(g5
S'\xd3/(<'
p7007
tp7008
Rp7009
ag1
(g5
S'\xc3\x98)<'
p7010
tp7011
Rp7012
ag1
(g5
S'z\xf8&<'
p7013
tp7014
Rp7015
ag1
(g5
S'\xa7I+<'
p7016
tp7017
Rp7018
ag1
(g5
S'\x0085<'
p7019
tp7020
Rp7021
ag1
(g5
S'\x86\xfa#<'
p7022
tp7023
Rp7024
ag1
(g5
S'?..<'
p7025
tp7026
Rp7027
ag1
(g5
S'Pn\xf6;'
p7028
tp7029
Rp7030
ag1
(g5
S'\x8a6\x96;'
p7031
tp7032
Rp7033
ag1
(g5
S'\xe80\xa3;'
p7034
tp7035
Rp7036
ag1
(g5
S'z\xf6\xaa;'
p7037
tp7038
Rp7039
ag1
(g5
S'\x13\x8dX;'
p7040
tp7041
Rp7042
ag1
(g5
S'\xe0\x94m;'
p7043
tp7044
Rp7045
ag1
(g5
S'\x029\x08;'
p7046
tp7047
Rp7048
ag1
(g5
S'\xfc\xc2,;'
p7049
tp7050
Rp7051
ag1
(g5
S'\x1f[\x8f;'
p7052
tp7053
Rp7054
ag1
(g5
S'\x9c\x05R;'
p7055
tp7056
Rp7057
ag1
(g5
S'\x8e\x0e\xab;'
p7058
tp7059
Rp7060
ag1
(g5
S'\x9aM\xf0;'
p7061
tp7062
Rp7063
ag1
(g5
S'\xffD\x00<'
p7064
tp7065
Rp7066
ag1
(g5
S'>\xb5\xf1;'
p7067
tp7068
Rp7069
ag1
(g5
S'\x02M\xcc;'
p7070
tp7071
Rp7072
ag1
(g5
S'lA\x86;'
p7073
tp7074
Rp7075
ag1
(g5
S'N\xa8%;'
p7076
tp7077
Rp7078
ag1
(g5
S'\xa2\x15\x93;'
p7079
tp7080
Rp7081
ag1
(g5
S'\xcey\xb7;'
p7082
tp7083
Rp7084
ag1
(g5
S'\xc5(\x82;'
p7085
tp7086
Rp7087
ag1
(g5
S'M\xa9.;'
p7088
tp7089
Rp7090
ag1
(g5
S'@\x0cP;'
p7091
tp7092
Rp7093
ag1
(g5
S'\x86\x05\x89;'
p7094
tp7095
Rp7096
ag1
(g5
S')f\xa2;'
p7097
tp7098
Rp7099
ag1
(g5
S'\xd9)2;'
p7100
tp7101
Rp7102
ag1
(g5
S'\xac\xa8\x14;'
p7103
tp7104
Rp7105
ag1
(g5
S'\xe3\x8c\x08;'
p7106
tp7107
Rp7108
ag1
(g5
S'N\x0c\x1c;'
p7109
tp7110
Rp7111
ag1
(g5
S'\x0c\xd9,;'
p7112
tp7113
Rp7114
ag1
(g5
S';\x9f$;'
p7115
tp7116
Rp7117
ag1
(g5
S'\x86@\x0c;'
p7118
tp7119
Rp7120
ag1
(g5
S'\xa6\xf9\x03;'
p7121
tp7122
Rp7123
ag1
(g5
S'\x12\x16\x1a;'
p7124
tp7125
Rp7126
ag1
(g5
S'\xfc\xca\x1e;'
p7127
tp7128
Rp7129
ag1
(g5
S'\x1c\xa9!;'
p7130
tp7131
Rp7132
ag1
(g5
S'\x12\xc1\x1d;'
p7133
tp7134
Rp7135
ag1
(g5
S'\xf1\xfb\x0e;'
p7136
tp7137
Rp7138
ag1
(g5
S'F\x99\xfe:'
p7139
tp7140
Rp7141
ag1
(g5
S'\xdam\x14;'
p7142
tp7143
Rp7144
ag1
(g5
S'\xe6\x11\x1c;'
p7145
tp7146
Rp7147
ag1
(g5
S'\x0b\x04\x06;'
p7148
tp7149
Rp7150
ag1
(g5
S'\x88\xcc\xff:'
p7151
tp7152
Rp7153
ag1
(g5
S'r\xe4\xf4:'
p7154
tp7155
Rp7156
ag1
(g5
S'$\xab\x07;'
p7157
tp7158
Rp7159
ag1
(g5
S'\xfe\xbc\x16;'
p7160
tp7161
Rp7162
ag1
(g5
S'n\xe0\x10;'
p7163
tp7164
Rp7165
ag1
(g5
S'J<\x00;'
p7166
tp7167
Rp7168
ag1
(g5
S'\xb6\xe8\xe4:'
p7169
tp7170
Rp7171
ag1
(g5
S'\xfe\xa4I<'
p7172
tp7173
Rp7174
ag1
(g5
S'DS(<'
p7175
tp7176
Rp7177
ag1
(g5
S'\xe0\x8b9<'
p7178
tp7179
Rp7180
ag1
(g5
S'_4K<'
p7181
tp7182
Rp7183
ag1
(g5
S'n\x80N<'
p7184
tp7185
Rp7186
ag1
(g5
S'\xb8\x9fR<'
p7187
tp7188
Rp7189
ag1
(g5
S'F\xfeE<'
p7190
tp7191
Rp7192
ag1
(g5
S'y@4<'
p7193
tp7194
Rp7195
ag1
(g5
S'\x08\x99&<'
p7196
tp7197
Rp7198
ag1
(g5
S'IT7<'
p7199
tp7200
Rp7201
ag1
(g5
S'\x1b\x199<'
p7202
tp7203
Rp7204
ag1
(g5
S'\xf2\xa4?<'
p7205
tp7206
Rp7207
ag1
(g5
S'\xf5}\x81<'
p7208
tp7209
Rp7210
ag1
(g5
S'\xe4\x17\x85<'
p7211
tp7212
Rp7213
ag1
(g5
S'\xff\xbb\x84<'
p7214
tp7215
Rp7216
ag1
(g5
S'6/\x82<'
p7217
tp7218
Rp7219
ag1
(g5
S'[\xf4\x80<'
p7220
tp7221
Rp7222
ag1
(g5
S'\xfc\xf1\x83<'
p7223
tp7224
Rp7225
ag1
(g5
S'O6\x80<'
p7226
tp7227
Rp7228
ag1
(g5
S'\xee\xb6\x84<'
p7229
tp7230
Rp7231
ag1
(g5
S'\xc8\xf2\x81<'
p7232
tp7233
Rp7234
ag1
(g5
S'7\xe5\x83<'
p7235
tp7236
Rp7237
ag1
(g5
S'*<\x81<'
p7238
tp7239
Rp7240
ag1
(g5
S'\x86\xc8\x84<'
p7241
tp7242
Rp7243
ag1
(g5
S'M&\x86<'
p7244
tp7245
Rp7246
ag1
(g5
S'U\x9e\x80<'
p7247
tp7248
Rp7249
ag1
(g5
S'\xea\x90x<'
p7250
tp7251
Rp7252
ag1
(g5
S' \x92}<'
p7253
tp7254
Rp7255
ag1
(g5
S'8H\x81<'
p7256
tp7257
Rp7258
ag1
(g5
S'x\xc5z<'
p7259
tp7260
Rp7261
ag1
(g5
S'\xf3\xcf{<'
p7262
tp7263
Rp7264
ag1
(g5
S'\x92\x1f|<'
p7265
tp7266
Rp7267
ag1
(g5
S'\xddqv<'
p7268
tp7269
Rp7270
ag1
(g5
S'\x8e\x88t<'
p7271
tp7272
Rp7273
ag1
(g5
S'\xd8\xfez<'
p7274
tp7275
Rp7276
ag1
(g5
S'oS\x81<'
p7277
tp7278
Rp7279
ag1
(g5
S'\x8b}j<'
p7280
tp7281
Rp7282
ag1
(g5
S'\xfe\nt<'
p7283
tp7284
Rp7285
ag1
(g5
S'\xf5\x9er<'
p7286
tp7287
Rp7288
ag1
(g5
S'\xa6\xecj<'
p7289
tp7290
Rp7291
ag1
(g5
S'\xb82q<'
p7292
tp7293
Rp7294
ag1
(g5
S'8\x86n<'
p7295
tp7296
Rp7297
ag1
(g5
S'\xfa"q<'
p7298
tp7299
Rp7300
ag1
(g5
S'\x06\xd9s<'
p7301
tp7302
Rp7303
ag1
(g5
S'R\xc9h<'
p7304
tp7305
Rp7306
ag1
(g5
S'`t{<'
p7307
tp7308
Rp7309
ag1
(g5
S'\x909n<'
p7310
tp7311
Rp7312
ag1
(g5
S':]n<'
p7313
tp7314
Rp7315
ag1
(g5
S'_&j<'
p7316
tp7317
Rp7318
ag1
(g5
S'\xccFc<'
p7319
tp7320
Rp7321
ag1
(g5
S'\xb3\xd7Y<'
p7322
tp7323
Rp7324
ag1
(g5
S'\xd3\xcfk<'
p7325
tp7326
Rp7327
ag1
(g5
S'b\xe0X<'
p7328
tp7329
Rp7330
ag1
(g5
S'>\xa8`<'
p7331
tp7332
Rp7333
ag1
(g5
S'\x8aFa<'
p7334
tp7335
Rp7336
ag1
(g5
S'>\xb3U<'
p7337
tp7338
Rp7339
ag1
(g5
S'H,j<'
p7340
tp7341
Rp7342
ag1
(g5
S'x\xabk<'
p7343
tp7344
Rp7345
ag1
(g5
S'\x00B[<'
p7346
tp7347
Rp7348
ag1
(g5
S'\x17\xe3T<'
p7349
tp7350
Rp7351
ag1
(g5
S'\xef\xed\xb7;'
p7352
tp7353
Rp7354
ag1
(g5
S'\xd0/\x9f;'
p7355
tp7356
Rp7357
ag1
(g5
S'\xee\xa5\xa5;'
p7358
tp7359
Rp7360
ag1
(g5
S'\x12\xe7\xb1;'
p7361
tp7362
Rp7363
ag1
(g5
S'\x8d\xbf\xa4;'
p7364
tp7365
Rp7366
ag1
(g5
S'\xea#\xaa;'
p7367
tp7368
Rp7369
ag1
(g5
S'\xfcA\xbd;'
p7370
tp7371
Rp7372
ag1
(g5
S'\xa6\x01\x97;'
p7373
tp7374
Rp7375
ag1
(g5
S'<R\xa1;'
p7376
tp7377
Rp7378
ag1
(g5
S'\x1c\x00\x96;'
p7379
tp7380
Rp7381
ag1
(g5
S'b{\x9d;'
p7382
tp7383
Rp7384
ag1
(g5
S'\\]\xa2;'
p7385
tp7386
Rp7387
ag1
(g5
S'\x80c\x04;'
p7388
tp7389
Rp7390
ag1
(g5
S'\xacx\xea:'
p7391
tp7392
Rp7393
ag1
(g5
S'\x96\xdf\xe8:'
p7394
tp7395
Rp7396
ag1
(g5
S'\x94w\xf1:'
p7397
tp7398
Rp7399
ag1
(g5
S'\xbe\xef\xe7:'
p7400
tp7401
Rp7402
ag1
(g5
S'\xf5\x91\xe3:'
p7403
tp7404
Rp7405
ag1
(g5
S'\xf3\x95\xe8:'
p7406
tp7407
Rp7408
ag1
(g5
S'\xec\xee\x00;'
p7409
tp7410
Rp7411
ag1
(g5
S'Z\x0f\xe6:'
p7412
tp7413
Rp7414
ag1
(g5
S'\x1de\xe5:'
p7415
tp7416
Rp7417
ag1
(g5
S"\x84'\xf2:"
p7418
tp7419
Rp7420
ag1
(g5
S'\xaat\xe6:'
p7421
tp7422
Rp7423
ag1
(g5
S'\xec\xf1\xdd;'
p7424
tp7425
Rp7426
ag1
(g5
S'\x8c\xfe\xc7;'
p7427
tp7428
Rp7429
ag1
(g5
S'\xb9n\xea;'
p7430
tp7431
Rp7432
ag1
(g5
S'\xd2p\xed;'
p7433
tp7434
Rp7435
ag1
(g5
S'\xab\xbb\x08<'
p7436
tp7437
Rp7438
ag1
(g5
S'\xe0\x8f\xe3;'
p7439
tp7440
Rp7441
ag1
(g5
S'\x8d$\x04<'
p7442
tp7443
Rp7444
ag1
(g5
S'\xae\x1d\xe8;'
p7445
tp7446
Rp7447
ag1
(g5
S'`\xe5\xfa;'
p7448
tp7449
Rp7450
ag1
(g5
S'\x1e\xe5\xb6;'
p7451
tp7452
Rp7453
ag1
(g5
S'\x00\x0f\xd9;'
p7454
tp7455
Rp7456
ag1
(g5
S'T\xf3\r<'
p7457
tp7458
Rp7459
ag1
(g5
S'\xf4\xfe-<'
p7460
tp7461
Rp7462
ag1
(g5
S'\xc2\xb10<'
p7463
tp7464
Rp7465
ag1
(g5
S'(\xb2.<'
p7466
tp7467
Rp7468
ag1
(g5
S'\x98\xcd$<'
p7469
tp7470
Rp7471
ag1
(g5
S'j\xd22<'
p7472
tp7473
Rp7474
ag1
(g5
S'\x153(<'
p7475
tp7476
Rp7477
ag1
(g5
S'\xc7\xcd(<'
p7478
tp7479
Rp7480
ag1
(g5
S'\x9c`\x1e<'
p7481
tp7482
Rp7483
ag1
(g5
S'\xd3#C<'
p7484
tp7485
Rp7486
ag1
(g5
S'\xa6/,<'
p7487
tp7488
Rp7489
ag1
(g5
S'\x86\x06$<'
p7490
tp7491
Rp7492
ag1
(g5
S'\xf6\xd0/<'
p7493
tp7494
Rp7495
ag1
(g5
S'\xd9x,<'
p7496
tp7497
Rp7498
ag1
(g5
S'\xde\xc0*<'
p7499
tp7500
Rp7501
ag1
(g5
S'C 0<'
p7502
tp7503
Rp7504
ag1
(g5
S'@\x01%<'
p7505
tp7506
Rp7507
ag1
(g5
S'\xec\xda1<'
p7508
tp7509
Rp7510
ag1
(g5
S'zr&<'
p7511
tp7512
Rp7513
ag1
(g5
S'\xb6\xab:<'
p7514
tp7515
Rp7516
ag1
(g5
S'~\xb2#<'
p7517
tp7518
Rp7519
ag1
(g5
S'\x9c/8<'
p7520
tp7521
Rp7522
ag1
(g5
S'\x0f|B<'
p7523
tp7524
Rp7525
ag1
(g5
S'Y\xcd.<'
p7526
tp7527
Rp7528
ag1
(g5
S'\xfb\xc3L<'
p7529
tp7530
Rp7531
ag1
(g5
S'3\xcf\x11<'
p7532
tp7533
Rp7534
ag1
(g5
S'YI\x16<'
p7535
tp7536
Rp7537
ag1
(g5
S'm\x1f\r<'
p7538
tp7539
Rp7540
ag1
(g5
S'WO\x14<'
p7541
tp7542
Rp7543
ag1
(g5
S'p\xe5\x04<'
p7544
tp7545
Rp7546
ag1
(g5
S'8\xc4\x14<'
p7547
tp7548
Rp7549
ag1
(g5
S'1\xa1\x13<'
p7550
tp7551
Rp7552
ag1
(g5
S'\xce\xde\x1c<'
p7553
tp7554
Rp7555
ag1
(g5
S'zt\x19<'
p7556
tp7557
Rp7558
ag1
(g5
S'\x07\xbe\x1b<'
p7559
tp7560
Rp7561
ag1
(g5
S'\x91\x01\x03<'
p7562
tp7563
Rp7564
ag1
(g5
S'oa2<'
p7565
tp7566
Rp7567
ag1
(g5
S'\\\xf1\r<'
p7568
tp7569
Rp7570
ag1
(g5
S'\x0b\xfb\x1a<'
p7571
tp7572
Rp7573
ag1
(g5
S'\x12\x14\t<'
p7574
tp7575
Rp7576
ag1
(g5
S'\xb8\xc3 <'
p7577
tp7578
Rp7579
ag1
(g5
S'\xc8<\x07<'
p7580
tp7581
Rp7582
ag1
(g5
S'\x86\x8d\x10<'
p7583
tp7584
Rp7585
ag1
(g5
S'\xaa\xf5\n<'
p7586
tp7587
Rp7588
ag1
(g5
S'"\x9c\x13<'
p7589
tp7590
Rp7591
ag1
(g5
S'f\x1a\x17<'
p7592
tp7593
Rp7594
ag1
(g5
S'=\x9e\xfa;'
p7595
tp7596
Rp7597
ag1
(g5
S';\xbe\x10<'
p7598
tp7599
Rp7600
ag1
(g5
S':\xa5\x0b<'
p7601
tp7602
Rp7603
ag1
(g5
S'\x9eB\xee;'
p7604
tp7605
Rp7606
ag1
(g5
S'Hp\xf0;'
p7607
tp7608
Rp7609
ag1
(g5
S'\xfa\xe0\xe1;'
p7610
tp7611
Rp7612
ag1
(g5
S'\xe9\x04\xec;'
p7613
tp7614
Rp7615
ag1
(g5
S'\xc8\xb1\xfd;'
p7616
tp7617
Rp7618
ag1
(g5
S'D\xe4\xe8;'
p7619
tp7620
Rp7621
ag1
(g5
S'\xeeL\xf4;'
p7622
tp7623
Rp7624
ag1
(g5
S'0\xea\xe7;'
p7625
tp7626
Rp7627
ag1
(g5
S'\xc6N\xf1;'
p7628
tp7629
Rp7630
ag1
(g5
S'\xde\xe9\xeb;'
p7631
tp7632
Rp7633
ag1
(g5
S'\x10\xc0\xeb;'
p7634
tp7635
Rp7636
ag1
(g5
S'\xcf\x15\x04<'
p7637
tp7638
Rp7639
ag1
(g5
S'w\x13\x05<'
p7640
tp7641
Rp7642
ag1
(g5
S'\x1dy\xf7;'
p7643
tp7644
Rp7645
ag1
(g5
S'\x96~\xf7;'
p7646
tp7647
Rp7648
ag1
(g5
S'\xfb\xcd\xdb;'
p7649
tp7650
Rp7651
ag1
(g5
S'\x1cr\x02<'
p7652
tp7653
Rp7654
ag1
(g5
S'u\x8e\xed;'
p7655
tp7656
Rp7657
ag1
(g5
S'\xc1\\\xf9;'
p7658
tp7659
Rp7660
ag1
(g5
S'\xb8f\xea;'
p7661
tp7662
Rp7663
ag1
(g5
S'\xecT\x02<'
p7664
tp7665
Rp7666
ag1
(g5
S'\xd1)\xf2;'
p7667
tp7668
Rp7669
ag1
(g5
S'\xce\xf9\xf1;'
p7670
tp7671
Rp7672
ag1
(g5
S'\xc8\xde\xfe;'
p7673
tp7674
Rp7675
ag1
(g5
S'D\x07\xf5;'
p7676
tp7677
Rp7678
ag1
(g5
S'\\\xe7\xfb;'
p7679
tp7680
Rp7681
ag1
(g5
S'\x89\xd8\x01<'
p7682
tp7683
Rp7684
ag1
(g5
S'\xa0\xfd\xf7;'
p7685
tp7686
Rp7687
ag1
(g5
S'\x9d;\x01<'
p7688
tp7689
Rp7690
ag1
(g5
S'g\xda\xf7;'
p7691
tp7692
Rp7693
ag1
(g5
S'7\xec\xf1;'
p7694
tp7695
Rp7696
ag1
(g5
S'n\xab\xec;'
p7697
tp7698
Rp7699
ag1
(g5
S'&\xed\xf0;'
p7700
tp7701
Rp7702
ag1
(g5
S'\x86\xab\xe0;'
p7703
tp7704
Rp7705
ag1
(g5
S'\x049\xfb;'
p7706
tp7707
Rp7708
ag1
(g5
S'\xec\xf7\xcd;'
p7709
tp7710
Rp7711
ag1
(g5
S'\xfe\x9d\xec;'
p7712
tp7713
Rp7714
ag1
(g5
S'\x17\x1d\xe1;'
p7715
tp7716
Rp7717
ag1
(g5
S'\x14f\xde;'
p7718
tp7719
Rp7720
ag1
(g5
S']\xd1\xcd;'
p7721
tp7722
Rp7723
ag1
(g5
S'I\xcc\xdf;'
p7724
tp7725
Rp7726
ag1
(g5
S'\xa6\xcf\xd5;'
p7727
tp7728
Rp7729
ag1
(g5
S'v\xec\xe5;'
p7730
tp7731
Rp7732
ag1
(g5
S'x\x07\xe6;'
p7733
tp7734
Rp7735
ag1
(g5
S'r\x08\xe0;'
p7736
tp7737
Rp7738
ag1
(g5
S'f\xcd\xd6;'
p7739
tp7740
Rp7741
ag1
(g5
S'\xacq\xe6;'
p7742
tp7743
Rp7744
ag1
(g5
S'Xw\xc5;'
p7745
tp7746
Rp7747
ag1
(g5
S'\x19\xa6\xc6;'
p7748
tp7749
Rp7750
ag1
(g5
S'D\xaa\xe0;'
p7751
tp7752
Rp7753
ag1
(g5
S'\x02\xd2\xc2;'
p7754
tp7755
Rp7756
ag1
(g5
S'\x91\x18\xd3;'
p7757
tp7758
Rp7759
ag1
(g5
S'=_\xe4;'
p7760
tp7761
Rp7762
ag1
(g5
S'\xda\x90\xf1;'
p7763
tp7764
Rp7765
ag1
(g5
S'\xdb\xa2\xd1;'
p7766
tp7767
Rp7768
ag1
(g5
S'\xdaR\xe5;'
p7769
tp7770
Rp7771
ag1
(g5
S'\x02\xe2\xbb;'
p7772
tp7773
Rp7774
ag1
(g5
S'u\xad\xee;'
p7775
tp7776
Rp7777
ag1
(g5
S'\xac\xa0\xea;'
p7778
tp7779
Rp7780
ag1
(g5
S'\x90\xc7\x04<'
p7781
tp7782
Rp7783
ag1
(g5
S'\x11T\xdf;'
p7784
tp7785
Rp7786
ag1
(g5
S'^\xbe\xec;'
p7787
tp7788
Rp7789
ag1
(g5
S'T\x8a\xe0;'
p7790
tp7791
Rp7792
ag1
(g5
S'\x07\xc9\xee;'
p7793
tp7794
Rp7795
ag1
(g5
S'\xa4\x18\xd5;'
p7796
tp7797
Rp7798
ag1
(g5
S'\x1bf\xc7;'
p7799
tp7800
Rp7801
ag1
(g5
S'\xf9\x92\xd9;'
p7802
tp7803
Rp7804
ag1
(g5
S'\x16\xae\xc3;'
p7805
tp7806
Rp7807
ag1
(g5
S'\xd6\x11\xd8;'
p7808
tp7809
Rp7810
ag1
(g5
S'b\x83\xe1;'
p7811
tp7812
Rp7813
ag1
(g5
S'\xb8(\xde;'
p7814
tp7815
Rp7816
ag1
(g5
S'\xd6o\x03<'
p7817
tp7818
Rp7819
ag1
(g5
S'J\xfb\xcf;'
p7820
tp7821
Rp7822
ag1
(g5
S'\x96\n\xb6;'
p7823
tp7824
Rp7825
ag1
(g5
S'\xcfc\xd2;'
p7826
tp7827
Rp7828
ag1
(g5
S'\x90\x01\xcc;'
p7829
tp7830
Rp7831
ag1
(g5
S'#\x97\xb8;'
p7832
tp7833
Rp7834
ag1
(g5
S'\xc2\x92\xd9;'
p7835
tp7836
Rp7837
ag1
(g5
S'T\x19\xc6;'
p7838
tp7839
Rp7840
ag1
(g5
S'JS\xcb;'
p7841
tp7842
Rp7843
ag1
(g5
S'x\x0c\xc0;'
p7844
tp7845
Rp7846
ag1
(g5
S'cV\xca;'
p7847
tp7848
Rp7849
ag1
(g5
S'\x8c\xbe\xd3;'
p7850
tp7851
Rp7852
ag1
(g5
S'\xa0\x05\xc1;'
p7853
tp7854
Rp7855
ag1
(g5
S'\xd1\x12\xd1;'
p7856
tp7857
Rp7858
ag1
(g5
S'\x81D\xd3;'
p7859
tp7860
Rp7861
ag1
(g5
S'\x9cK\xdd;'
p7862
tp7863
Rp7864
ag1
(g5
S'\xbe3\xbc;'
p7865
tp7866
Rp7867
ag1
(g5
S'x\x8b\xde;'
p7868
tp7869
Rp7870
ag1
(g5
S'\x08\xa4\xd6;'
p7871
tp7872
Rp7873
ag1
(g5
S'`\xcf\xc8;'
p7874
tp7875
Rp7876
ag1
(g5
S'W\xaf\xd0;'
p7877
tp7878
Rp7879
ag1
(g5
S'd\xf4\xdd;'
p7880
tp7881
Rp7882
ag1
(g5
S'\x04j\xe9;'
p7883
tp7884
Rp7885
ag1
(g5
S'r\xc1\xc2;'
p7886
tp7887
Rp7888
ag1
(g5
S'\x88v\xd2;'
p7889
tp7890
Rp7891
ag1
(g5
S'\x7f\x98\xed;'
p7892
tp7893
Rp7894
ag1
(g5
S'\xee\x8a\xf3;'
p7895
tp7896
Rp7897
ag1
(g5
S'%\\\xe8;'
p7898
tp7899
Rp7900
ag1
(g5
S'\x84\xd5\xe0;'
p7901
tp7902
Rp7903
ag1
(g5
S'\xd9\x86\xe9;'
p7904
tp7905
Rp7906
ag1
(g5
S'\x9e\xb3\xf6;'
p7907
tp7908
Rp7909
ag1
(g5
S'\x81+\xe7;'
p7910
tp7911
Rp7912
ag1
(g5
S'\xee\x1c\xf0;'
p7913
tp7914
Rp7915
ag1
(g5
S'\x92\x06\xea;'
p7916
tp7917
Rp7918
ag1
(g5
S'\x07F\xee;'
p7919
tp7920
Rp7921
ag1
(g5
S'\xbc\xe8\xf3;'
p7922
tp7923
Rp7924
ag1
(g5
S'\x13\x18\r<'
p7925
tp7926
Rp7927
ag1
(g5
S']\xe8\xb5;'
p7928
tp7929
Rp7930
ag1
(g5
S'8X\xc4;'
p7931
tp7932
Rp7933
ag1
(g5
S'\xbcg\xc3;'
p7934
tp7935
Rp7936
ag1
(g5
S'\xc3\xe1\xbf;'
p7937
tp7938
Rp7939
ag1
(g5
S'\x9a\x03\xbf;'
p7940
tp7941
Rp7942
ag1
(g5
S'\xc6\x18\xc5;'
p7943
tp7944
Rp7945
ag1
(g5
S'\x81\xf1\xb0;'
p7946
tp7947
Rp7948
ag1
(g5
S'\xe4:\xb5;'
p7949
tp7950
Rp7951
ag1
(g5
S'K\xc0\xc1;'
p7952
tp7953
Rp7954
ag1
(g5
S'\xd3\x8d\xc4;'
p7955
tp7956
Rp7957
ag1
(g5
S'aV\xc5;'
p7958
tp7959
Rp7960
ag1
(g5
S'\xe5\x80\xa9;'
p7961
tp7962
Rp7963
ag1
(g5
S"'j\xca;"
p7964
tp7965
Rp7966
ag1
(g5
S'\x1e\x9b\xcc;'
p7967
tp7968
Rp7969
ag1
(g5
S'\xcc\x19\xc3;'
p7970
tp7971
Rp7972
ag1
(g5
S'\x96\xbf\xca;'
p7973
tp7974
Rp7975
ag1
(g5
S'6\x01\xc1;'
p7976
tp7977
Rp7978
ag1
(g5
S'\xd2\x91\xbb;'
p7979
tp7980
Rp7981
ag1
(g5
S'\\K\xce;'
p7982
tp7983
Rp7984
ag1
(g5
S'\x98\x02\xc4;'
p7985
tp7986
Rp7987
ag1
(g5
S'\x83\xb5\xc0;'
p7988
tp7989
Rp7990
ag1
(g5
S'\xd0\\\xba;'
p7991
tp7992
Rp7993
ag1
(g5
S'\x1c\x0e\xc3;'
p7994
tp7995
Rp7996
ag1
(g5
S'8s\xb7;'
p7997
tp7998
Rp7999
ag1
(g5
S'\xb4\xd2\xb8;'
p8000
tp8001
Rp8002
ag1
(g5
S'\xfeZ\xbe;'
p8003
tp8004
Rp8005
ag1
(g5
S'\x82\x88\xb8;'
p8006
tp8007
Rp8008
ag1
(g5
S'$\xae\xb7;'
p8009
tp8010
Rp8011
ag1
(g5
S'\x00\x17\xbf;'
p8012
tp8013
Rp8014
ag1
(g5
S'\x87\xdb\xb4;'
p8015
tp8016
Rp8017
ag1
(g5
S'<A\xbb;'
p8018
tp8019
Rp8020
ag1
(g5
S'\xec\x8b\xa2;'
p8021
tp8022
Rp8023
ag1
(g5
S'\x0eS\xc4;'
p8024
tp8025
Rp8026
ag1
(g5
S'nu\xac;'
p8027
tp8028
Rp8029
ag1
(g5
S'x@\x96;'
p8030
tp8031
Rp8032
ag1
(g5
S'\xf6\x0c\x90;'
p8033
tp8034
Rp8035
ag1
(g5
S'F\x1b/<'
p8036
tp8037
Rp8038
ag1
(g5
S'Z\x9dC<'
p8039
tp8040
Rp8041
ag1
(g5
S'_\xcb!<'
p8042
tp8043
Rp8044
ag1
(g5
S'\xf6{,<'
p8045
tp8046
Rp8047
ag1
(g5
S'\x02N;<'
p8048
tp8049
Rp8050
ag1
(g5
S'\xf6-$<'
p8051
tp8052
Rp8053
ag1
(g5
S'W\xe7&<'
p8054
tp8055
Rp8056
ag1
(g5
S'\x8a\xac\x08<'
p8057
tp8058
Rp8059
ag1
(g5
S'\x10\xef!<'
p8060
tp8061
Rp8062
ag1
(g5
S'\xe6\xa9\x1f<'
p8063
tp8064
Rp8065
ag1
(g5
S'\xa5V&<'
p8066
tp8067
Rp8068
ag1
(g5
S"\xca\x18'<"
p8069
tp8070
Rp8071
ag1
(g5
S'F\xf2b<'
p8072
tp8073
Rp8074
ag1
(g5
S'\xfaWn<'
p8075
tp8076
Rp8077
ag1
(g5
S'h\x08g<'
p8078
tp8079
Rp8080
ag1
(g5
S'\xf8-c<'
p8081
tp8082
Rp8083
ag1
(g5
S' \xebb<'
p8084
tp8085
Rp8086
ag1
(g5
S'm\x93i<'
p8087
tp8088
Rp8089
ag1
(g5
S'\xac\x8fa<'
p8090
tp8091
Rp8092
ag1
(g5
S'\xb4\xbfa<'
p8093
tp8094
Rp8095
ag1
(g5
S'\x14\xe1_<'
p8096
tp8097
Rp8098
ag1
(g5
S'\xb4fQ<'
p8099
tp8100
Rp8101
ag1
(g5
S'\x11\x12e<'
p8102
tp8103
Rp8104
ag1
(g5
S'\xeaL><'
p8105
tp8106
Rp8107
ag1
(g5
S'G\xa6\x13;'
p8108
tp8109
Rp8110
ag1
(g5
S'\xa3\xc5\x07;'
p8111
tp8112
Rp8113
ag1
(g5
S'-*\x15;'
p8114
tp8115
Rp8116
ag1
(g5
S'T.\x19;'
p8117
tp8118
Rp8119
ag1
(g5
S'\xc2\xcb\x1e;'
p8120
tp8121
Rp8122
ag1
(g5
S'\xc6K\n;'
p8123
tp8124
Rp8125
ag1
(g5
S'#-\x13;'
p8126
tp8127
Rp8128
ag1
(g5
S'\x9e\x17\x07;'
p8129
tp8130
Rp8131
ag1
(g5
S'N[\x19;'
p8132
tp8133
Rp8134
ag1
(g5
S'\x13X\x0b;'
p8135
tp8136
Rp8137
ag1
(g5
S'\xdf\xac\r;'
p8138
tp8139
Rp8140
ag1
(g5
S'\xda\x11\x02;'
p8141
tp8142
Rp8143
ag1
(g5
S'\xc8z\xee;'
p8144
tp8145
Rp8146
ag1
(g5
S'\x0b\xe8\xeb;'
p8147
tp8148
Rp8149
ag1
(g5
S'\xe3\x1f\r<'
p8150
tp8151
Rp8152
ag1
(g5
S'c\xce\xfe;'
p8153
tp8154
Rp8155
ag1
(g5
S'$\x93\xe8;'
p8156
tp8157
Rp8158
ag1
(g5
S'Pr\xed;'
p8159
tp8160
Rp8161
ag1
(g5
S'@\x14\x04<'
p8162
tp8163
Rp8164
ag1
(g5
S'b\xb7\x05<'
p8165
tp8166
Rp8167
ag1
(g5
S'\xde\x06\xf3;'
p8168
tp8169
Rp8170
ag1
(g5
S'|M\x03<'
p8171
tp8172
Rp8173
ag1
(g5
S'\x997\xf4;'
p8174
tp8175
Rp8176
ag1
(g5
S'\x0e.\x0c<'
p8177
tp8178
Rp8179
ag1
(g5
S'(\x9f%<'
p8180
tp8181
Rp8182
ag1
(g5
S'R\xf5"<'
p8183
tp8184
Rp8185
ag1
(g5
S'\xdd[\x15<'
p8186
tp8187
Rp8188
ag1
(g5
S'\x96B#<'
p8189
tp8190
Rp8191
ag1
(g5
S'X@\x1e<'
p8192
tp8193
Rp8194
ag1
(g5
S'\xb0\x89&<'
p8195
tp8196
Rp8197
ag1
(g5
S't\x8e\x0f<'
p8198
tp8199
Rp8200
ag1
(g5
S't\xf6\x19<'
p8201
tp8202
Rp8203
ag1
(g5
S'\x985\x18<'
p8204
tp8205
Rp8206
ag1
(g5
S'|c\x17<'
p8207
tp8208
Rp8209
ag1
(g5
S'\x00\x16!<'
p8210
tp8211
Rp8212
ag1
(g5
S'T\x95"<'
p8213
tp8214
Rp8215
ag1
(g5
S'I\xa3\x19<'
p8216
tp8217
Rp8218
ag1
(g5
S'_P\x0e<'
p8219
tp8220
Rp8221
ag1
(g5
S'$\x1b\x12<'
p8222
tp8223
Rp8224
ag1
(g5
S'\x86\xab\x1b<'
p8225
tp8226
Rp8227
ag1
(g5
S'M\x80\x0e<'
p8228
tp8229
Rp8230
ag1
(g5
S'\xb9\x91\x07<'
p8231
tp8232
Rp8233
ag1
(g5
S'\xa9:\x18<'
p8234
tp8235
Rp8236
ag1
(g5
S'\xe8\x91\x15<'
p8237
tp8238
Rp8239
ag1
(g5
S'Wz\x0c<'
p8240
tp8241
Rp8242
ag1
(g5
S'0\x15\x12<'
p8243
tp8244
Rp8245
ag1
(g5
S'\x0eX\x10<'
p8246
tp8247
Rp8248
ag1
(g5
S'\x8bT\x10<'
p8249
tp8250
Rp8251
ag1
(g5
S'\xf8D\x02<'
p8252
tp8253
Rp8254
ag1
(g5
S'=\x86\x13<'
p8255
tp8256
Rp8257
ag1
(g5
S'\x8c\xcb\x12<'
p8258
tp8259
Rp8260
ag1
(g5
S'\x0e\xaa <'
p8261
tp8262
Rp8263
ag1
(g5
S'\xb7\x95\x11<'
p8264
tp8265
Rp8266
ag1
(g5
S'r\x08\x11<'
p8267
tp8268
Rp8269
ag1
(g5
S'\xdc\xfc\x00<'
p8270
tp8271
Rp8272
ag1
(g5
S"\xac'\x19<"
p8273
tp8274
Rp8275
ag1
(g5
S'\xce\xff\x13<'
p8276
tp8277
Rp8278
ag1
(g5
S'<\x0e\x11<'
p8279
tp8280
Rp8281
ag1
(g5
S'\xbau\x15<'
p8282
tp8283
Rp8284
ag1
(g5
S'Bm\x1e<'
p8285
tp8286
Rp8287
ag1
(g5
S'\xaf\x8a\x17<'
p8288
tp8289
Rp8290
ag1
(g5
S'a\xf6\x11<'
p8291
tp8292
Rp8293
ag1
(g5
S'\x92\xc9\x17<'
p8294
tp8295
Rp8296
ag1
(g5
S'>&\x10<'
p8297
tp8298
Rp8299
ag1
(g5
S'w5\x16<'
p8300
tp8301
Rp8302
ag1
(g5
S'\x14\xee\x10<'
p8303
tp8304
Rp8305
ag1
(g5
S'\x184\x19<'
p8306
tp8307
Rp8308
ag1
(g5
S'z\xbe\x19<'
p8309
tp8310
Rp8311
ag1
(g5
S'\xc6\xb3\r<'
p8312
tp8313
Rp8314
ag1
(g5
S'C\xc3\x11<'
p8315
tp8316
Rp8317
ag1
(g5
S'\x0ex\x16<'
p8318
tp8319
Rp8320
ag1
(g5
S'\xfd\x81\x06<'
p8321
tp8322
Rp8323
ag1
(g5
S'\x99R\x03<'
p8324
tp8325
Rp8326
ag1
(g5
S'T\x1f\x01<'
p8327
tp8328
Rp8329
ag1
(g5
S'\xe1s\x07<'
p8330
tp8331
Rp8332
ag1
(g5
S'\xec\t\x03<'
p8333
tp8334
Rp8335
ag1
(g5
S'3\xec\x00<'
p8336
tp8337
Rp8338
ag1
(g5
S'\xce\x7f\xed;'
p8339
tp8340
Rp8341
ag1
(g5
S'Q\xa3\x05<'
p8342
tp8343
Rp8344
ag1
(g5
S'p\x96\xf9;'
p8345
tp8346
Rp8347
ag1
(g5
S'|\x86\x0b<'
p8348
tp8349
Rp8350
ag1
(g5
S'\x10\x80\x0f<'
p8351
tp8352
Rp8353
ag1
(g5
S'8\xb3\x03<'
p8354
tp8355
Rp8356
ag1
(g5
S'\xd4>\x04<'
p8357
tp8358
Rp8359
ag1
(g5
S'\xd3Q\x07<'
p8360
tp8361
Rp8362
ag1
(g5
S'@\x97\x05<'
p8363
tp8364
Rp8365
ag1
(g5
S'\x7f|\x0b<'
p8366
tp8367
Rp8368
ag1
(g5
S'\xa0%\x06<'
p8369
tp8370
Rp8371
ag1
(g5
S'\x80\xd9\x02<'
p8372
tp8373
Rp8374
ag1
(g5
S'\xaa6\x03<'
p8375
tp8376
Rp8377
ag1
(g5
S'\xa2\x0c\x04<'
p8378
tp8379
Rp8380
ag1
(g5
S'R?\x01<'
p8381
tp8382
Rp8383
ag1
(g5
S'\xac\xda\n<'
p8384
tp8385
Rp8386
ag1
(g5
S'|\xeb\x05<'
p8387
tp8388
Rp8389
ag1
(g5
S'\x88\x16\x07<'
p8390
tp8391
Rp8392
ag1
(g5
S'"E\xeb;'
p8393
tp8394
Rp8395
ag1
(g5
S'\xd0\x9e\xe5;'
p8396
tp8397
Rp8398
ag1
(g5
S'T\xac\xf5;'
p8399
tp8400
Rp8401
ag1
(g5
S'V\xcc\xfe;'
p8402
tp8403
Rp8404
ag1
(g5
S'Qj\x01<'
p8405
tp8406
Rp8407
ag1
(g5
S'\n\xbf\x00<'
p8408
tp8409
Rp8410
ag1
(g5
S'\x80\xbc\x01<'
p8411
tp8412
Rp8413
ag1
(g5
S'b?\x08<'
p8414
tp8415
Rp8416
ag1
(g5
S'\xec\xf6\x03<'
p8417
tp8418
Rp8419
ag1
(g5
S'\xbc#\x06<'
p8420
tp8421
Rp8422
ag1
(g5
S'M\x88\x01<'
p8423
tp8424
Rp8425
ag1
(g5
S'\x12\x95\x01<'
p8426
tp8427
Rp8428
ag1
(g5
S'\xb8\t\xf9;'
p8429
tp8430
Rp8431
ag1
(g5
S'"K\xf8;'
p8432
tp8433
Rp8434
ag1
(g5
S'\xdfr\xe6;'
p8435
tp8436
Rp8437
ag1
(g5
S'\xdb\xa4\xda;'
p8438
tp8439
Rp8440
ag1
(g5
S'\xed\x1a\x03<'
p8441
tp8442
Rp8443
ag1
(g5
S'\x9fN\x02<'
p8444
tp8445
Rp8446
ag1
(g5
S'o\x96\xe9;'
p8447
tp8448
Rp8449
ag1
(g5
S'\xae\xdc\x03<'
p8450
tp8451
Rp8452
ag1
(g5
S'F\x19\x01<'
p8453
tp8454
Rp8455
ag1
(g5
S'j\xa8\xf1;'
p8456
tp8457
Rp8458
ag1
(g5
S'\xcc\x0f\xfa;'
p8459
tp8460
Rp8461
ag1
(g5
S'xb\xef;'
p8462
tp8463
Rp8464
ag1
(g5
S'\x92\x11\xdd;'
p8465
tp8466
Rp8467
ag1
(g5
S'\x88A\x07<'
p8468
tp8469
Rp8470
ag1
(g5
S'\xfa\xc9\xfb;'
p8471
tp8472
Rp8473
ag1
(g5
S'\xf3\xd3\xdc;'
p8474
tp8475
Rp8476
ag1
(g5
S'\xcc\x0b\xf5;'
p8477
tp8478
Rp8479
ag1
(g5
S'I\xe3\xe1;'
p8480
tp8481
Rp8482
ag1
(g5
S'\xd4\x91\xd9;'
p8483
tp8484
Rp8485
ag1
(g5
S'\xdaj\xfe;'
p8486
tp8487
Rp8488
ag1
(g5
S'LY\xff;'
p8489
tp8490
Rp8491
ag1
(g5
S'\x80\xfd\xdb;'
p8492
tp8493
Rp8494
ag1
(g5
S'\xa4\xee\xe6;'
p8495
tp8496
Rp8497
ag1
(g5
S'\x86q\xf0;'
p8498
tp8499
Rp8500
ag1
(g5
S'*\x7f\x0c<'
p8501
tp8502
Rp8503
ag1
(g5
S'\xf9\xd3\xf0;'
p8504
tp8505
Rp8506
ag1
(g5
S'\xaf$\xe8;'
p8507
tp8508
Rp8509
ag1
(g5
S'\xaa\xa6\xf4;'
p8510
tp8511
Rp8512
ag1
(g5
S' \x80\xde;'
p8513
tp8514
Rp8515
ag1
(g5
S'H\x86\xdc;'
p8516
tp8517
Rp8518
ag1
(g5
S'a\x8d\xe4;'
p8519
tp8520
Rp8521
ag1
(g5
S'Y)\xd8;'
p8522
tp8523
Rp8524
ag1
(g5
S'0\xfe\xe8;'
p8525
tp8526
Rp8527
ag1
(g5
S'x\xee\xe6;'
p8528
tp8529
Rp8530
ag1
(g5
S'\xad\\\xe0;'
p8531
tp8532
Rp8533
ag1
(g5
S'\xc8H\xe5;'
p8534
tp8535
Rp8536
ag1
(g5
S'p\xca\xd5;'
p8537
tp8538
Rp8539
ag1
(g5
S'\x88~\xed;'
p8540
tp8541
Rp8542
ag1
(g5
S'\x12j\xe3;'
p8543
tp8544
Rp8545
ag1
(g5
S'/\xbe\x00<'
p8546
tp8547
Rp8548
ag1
(g5
S'^B\xe8;'
p8549
tp8550
Rp8551
ag1
(g5
S'(\xa8\x00<'
p8552
tp8553
Rp8554
ag1
(g5
S'*\xbf\xe3;'
p8555
tp8556
Rp8557
ag1
(g5
S'\xf8\x0f\x00<'
p8558
tp8559
Rp8560
ag1
(g5
S'\x1cJ\x04<'
p8561
tp8562
Rp8563
ag1
(g5
S'\x16\xe4\xd9;'
p8564
tp8565
Rp8566
ag1
(g5
S'\xbe\x16\xea;'
p8567
tp8568
Rp8569
ag1
(g5
S'\xe9\xc0\xe0;'
p8570
tp8571
Rp8572
ag1
(g5
S'\x8a\x14\xdf;'
p8573
tp8574
Rp8575
ag1
(g5
S'U\xb8\xe0;'
p8576
tp8577
Rp8578
ag1
(g5
S'F\xc5\xe7;'
p8579
tp8580
Rp8581
ag1
(g5
S'\x8c\x13\xf1;'
p8582
tp8583
Rp8584
ag1
(g5
S'\\\xfe\xe1;'
p8585
tp8586
Rp8587
ag1
(g5
S'E\xf4\xd7;'
p8588
tp8589
Rp8590
ag1
(g5
S'\xc7:\xcd;'
p8591
tp8592
Rp8593
ag1
(g5
S'*!\xe4;'
p8594
tp8595
Rp8596
ag1
(g5
S'\xa6?\xdf;'
p8597
tp8598
Rp8599
ag1
(g5
S'\xc1\xe2\xdb;'
p8600
tp8601
Rp8602
ag1
(g5
S'\xed%\xe5;'
p8603
tp8604
Rp8605
ag1
(g5
S'\xe5>\xda;'
p8606
tp8607
Rp8608
ag1
(g5
S'v\xca\xf8;'
p8609
tp8610
Rp8611
ag1
(g5
S'O\xa3\xed;'
p8612
tp8613
Rp8614
ag1
(g5
S'\xa1\xca\xc5;'
p8615
tp8616
Rp8617
ag1
(g5
S'\x1eF\xed;'
p8618
tp8619
Rp8620
ag1
(g5
S'\x8e\x81\xc8;'
p8621
tp8622
Rp8623
ag1
(g5
S'\x84\xf6\xd4;'
p8624
tp8625
Rp8626
ag1
(g5
S'|\x18\xd6;'
p8627
tp8628
Rp8629
ag1
(g5
S'p\x14\xd4;'
p8630
tp8631
Rp8632
ag1
(g5
S'\xd1\x12\xea;'
p8633
tp8634
Rp8635
ag1
(g5
S'r\x98\xc8;'
p8636
tp8637
Rp8638
ag1
(g5
S'\x93\x07\xda;'
p8639
tp8640
Rp8641
ag1
(g5
S'\xec~\xf6;'
p8642
tp8643
Rp8644
ag1
(g5
S'\xdf|\xc6;'
p8645
tp8646
Rp8647
ag1
(g5
S'BM\xc6;'
p8648
tp8649
Rp8650
ag1
(g5
S'\xd3\xc9\xbb;'
p8651
tp8652
Rp8653
ag1
(g5
S'\xfc\xe7\xd4;'
p8654
tp8655
Rp8656
ag1
(g5
S'\x12\xae\xc4;'
p8657
tp8658
Rp8659
ag1
(g5
S'\x8fH\xc2;'
p8660
tp8661
Rp8662
ag1
(g5
S'\xdb\xe2\xc9;'
p8663
tp8664
Rp8665
ag1
(g5
S']%\xc1;'
p8666
tp8667
Rp8668
ag1
(g5
S'w.\xc2;'
p8669
tp8670
Rp8671
ag1
(g5
S'"\xa4\xbf;'
p8672
tp8673
Rp8674
ag1
(g5
S'\xc4\x17\xbc;'
p8675
tp8676
Rp8677
ag1
(g5
S'\x90\xeb\xc3;'
p8678
tp8679
Rp8680
ag1
(g5
S'*\xc0\xad;'
p8681
tp8682
Rp8683
ag1
(g5
S'\xfc\xed\xed;'
p8684
tp8685
Rp8686
ag1
(g5
S'~\x0c\xda;'
p8687
tp8688
Rp8689
ag1
(g5
S'=\xea\xe0;'
p8690
tp8691
Rp8692
ag1
(g5
S'W\x91\xdd;'
p8693
tp8694
Rp8695
ag1
(g5
S'p\xff\xf0;'
p8696
tp8697
Rp8698
ag1
(g5
S'N\xfe\xe0;'
p8699
tp8700
Rp8701
ag1
(g5
S'\xc7\xb5\xeb;'
p8702
tp8703
Rp8704
ag1
(g5
S'v\x86\xef;'
p8705
tp8706
Rp8707
ag1
(g5
S'_\xa7\xe8;'
p8708
tp8709
Rp8710
ag1
(g5
S'=\xdd\xdb;'
p8711
tp8712
Rp8713
ag1
(g5
S'\xe9\xf2\xe9;'
p8714
tp8715
Rp8716
ag1
(g5
S'\xefz\xb8;'
p8717
tp8718
Rp8719
ag1
(g5
S'\xf0\xd4\xde;'
p8720
tp8721
Rp8722
ag1
(g5
S'A\x85\xda;'
p8723
tp8724
Rp8725
ag1
(g5
S'>n\xf2;'
p8726
tp8727
Rp8728
ag1
(g5
S'UF\x07<'
p8729
tp8730
Rp8731
ag1
(g5
S'\xf0\xca\x04<'
p8732
tp8733
Rp8734
ag1
(g5
S'r\xc5\xde;'
p8735
tp8736
Rp8737
ag1
(g5
S'\xcf\x05\xcb;'
p8738
tp8739
Rp8740
ag1
(g5
S'\x16#\xe4;'
p8741
tp8742
Rp8743
ag1
(g5
S'\xf8\xf4\xf5;'
p8744
tp8745
Rp8746
ag1
(g5
S'\x17\xa5\x00<'
p8747
tp8748
Rp8749
ag1
(g5
S'\x89\xcc\x05<'
p8750
tp8751
Rp8752
ag1
(g5
S'\xcc\xb9\xcf;'
p8753
tp8754
Rp8755
ag1
(g5
S'\x0b\xc1"<'
p8756
tp8757
Rp8758
ag1
(g5
S'\x1e\x99\x1c<'
p8759
tp8760
Rp8761
ag1
(g5
S'\xb5\xc0&<'
p8762
tp8763
Rp8764
ag1
(g5
S'\xb4_-<'
p8765
tp8766
Rp8767
ag1
(g5
S'\xe3: <'
p8768
tp8769
Rp8770
ag1
(g5
S'\xc6y!<'
p8771
tp8772
Rp8773
ag1
(g5
S'\xb9\x16\x0f<'
p8774
tp8775
Rp8776
ag1
(g5
S'\x08j!<'
p8777
tp8778
Rp8779
ag1
(g5
S'\xb7m\r<'
p8780
tp8781
Rp8782
ag1
(g5
S'\x17\xce.<'
p8783
tp8784
Rp8785
ag1
(g5
S'\xdcj\x04<'
p8786
tp8787
Rp8788
ag1
(g5
S'\xf6E\x10<'
p8789
tp8790
Rp8791
ag1
(g5
S'\xc90)<'
p8792
tp8793
Rp8794
ag1
(g5
S'=j3<'
p8795
tp8796
Rp8797
ag1
(g5
S'Z\x0b$<'
p8798
tp8799
Rp8800
ag1
(g5
S'\xda\xe3&<'
p8801
tp8802
Rp8803
ag1
(g5
S'\x0c\x15 <'
p8804
tp8805
Rp8806
ag1
(g5
S'\xc4\xb3\x1e<'
p8807
tp8808
Rp8809
ag1
(g5
S'\x9f"(<'
p8810
tp8811
Rp8812
ag1
(g5
S'6\x14%<'
p8813
tp8814
Rp8815
ag1
(g5
S'\xbc\xb9)<'
p8816
tp8817
Rp8818
ag1
(g5
S'\x8b\x0b6<'
p8819
tp8820
Rp8821
ag1
(g5
S"u\xdb'<"
p8822
tp8823
Rp8824
ag1
(g5
S'\xe0\x9d5<'
p8825
tp8826
Rp8827
ag1
(g5
S'\xa3\xb0\xd2;'
p8828
tp8829
Rp8830
ag1
(g5
S'\xba\x82\xa9;'
p8831
tp8832
Rp8833
ag1
(g5
S'\xc4\xe9M;'
p8834
tp8835
Rp8836
ag1
(g5
S'\x86\x8b\x90;'
p8837
tp8838
Rp8839
ag1
(g5
S':\xe31;'
p8840
tp8841
Rp8842
ag1
(g5
S'|Po;'
p8843
tp8844
Rp8845
ag1
(g5
S'\x82\x10S;'
p8846
tp8847
Rp8848
ag1
(g5
S'\xf0"^;'
p8849
tp8850
Rp8851
ag1
(g5
S'\xc0-\xc6;'
p8852
tp8853
Rp8854
ag1
(g5
S'@5\x8c;'
p8855
tp8856
Rp8857
ag1
(g5
S'R\x80\x7f;'
p8858
tp8859
Rp8860
ag1
(g5
S'H\xeea;'
p8861
tp8862
Rp8863
ag1
(g5
S'\xaa\x0c\xd6;'
p8864
tp8865
Rp8866
ag1
(g5
S'i\xab\xab;'
p8867
tp8868
Rp8869
ag1
(g5
S'\xd0kM;'
p8870
tp8871
Rp8872
ag1
(g5
S'\xda\xeb8;'
p8873
tp8874
Rp8875
ag1
(g5
S'\x89\x08\x89;'
p8876
tp8877
Rp8878
ag1
(g5
S'\x89l\x9b;'
p8879
tp8880
Rp8881
ag1
(g5
S'\xac\xf2B;'
p8882
tp8883
Rp8884
ag1
(g5
S'\xd3a.;'
p8885
tp8886
Rp8887
ag1
(g5
S'\xc4\ro;'
p8888
tp8889
Rp8890
ag1
(g5
S'K\xd9\x80;'
p8891
tp8892
Rp8893
ag1
(g5
S'OrV;'
p8894
tp8895
Rp8896
ag1
(g5
S'\xfe\xcf7;'
p8897
tp8898
Rp8899
ag1
(g5
S'\xa6a\xf9:'
p8900
tp8901
Rp8902
ag1
(g5
S'M\x8e\x15;'
p8903
tp8904
Rp8905
ag1
(g5
S'-\xaa*;'
p8906
tp8907
Rp8908
ag1
(g5
S'+\xf2\x1c;'
p8909
tp8910
Rp8911
ag1
(g5
S'\xc9y\xff:'
p8912
tp8913
Rp8914
ag1
(g5
S'\xdcD\xf7:'
p8915
tp8916
Rp8917
ag1
(g5
S'rD\t;'
p8918
tp8919
Rp8920
ag1
(g5
S'\xa3\xa6\x19;'
p8921
tp8922
Rp8923
ag1
(g5
S'\\6\x12;'
p8924
tp8925
Rp8926
ag1
(g5
S'\xc7\xba\xfd:'
p8927
tp8928
Rp8929
ag1
(g5
S'N \x06;'
p8930
tp8931
Rp8932
ag1
(g5
S'\xd2\x1a\xfe:'
p8933
tp8934
Rp8935
ag1
(g5
S'k\xc0\x06;'
p8936
tp8937
Rp8938
ag1
(g5
S'\xe6\xd5\xf9:'
p8939
tp8940
Rp8941
ag1
(g5
S'=\xb4\xfc:'
p8942
tp8943
Rp8944
ag1
(g5
S'\x8e\x1e\xf7:'
p8945
tp8946
Rp8947
ag1
(g5
S'\x0e\x0c\x01;'
p8948
tp8949
Rp8950
ag1
(g5
S'4\x8d\x00;'
p8951
tp8952
Rp8953
ag1
(g5
S'{\xdf\xef:'
p8954
tp8955
Rp8956
ag1
(g5
S'\x1a\xb4\xf0:'
p8957
tp8958
Rp8959
ag1
(g5
S'}\xdb\xed:'
p8960
tp8961
Rp8962
ag1
(g5
S'\x8e1\xec:'
p8963
tp8964
Rp8965
ag1
(g5
S's`\xf1:'
p8966
tp8967
Rp8968
ag1
(g5
S'\xa48\xec:'
p8969
tp8970
Rp8971
ag1
(g5
S'!\x9e/<'
p8972
tp8973
Rp8974
ag1
(g5
S'6$\x1d<'
p8975
tp8976
Rp8977
ag1
(g5
S'\x16\x99)<'
p8978
tp8979
Rp8980
ag1
(g5
S'\x01Y)<'
p8981
tp8982
Rp8983
ag1
(g5
S'\x1d5$<'
p8984
tp8985
Rp8986
ag1
(g5
S'\x9c\xf7\x1b<'
p8987
tp8988
Rp8989
ag1
(g5
S'\xffv\x1b<'
p8990
tp8991
Rp8992
ag1
(g5
S'\x18\xc90<'
p8993
tp8994
Rp8995
ag1
(g5
S'\x88\xf7)<'
p8996
tp8997
Rp8998
ag1
(g5
S'4&\x1b<'
p8999
tp9000
Rp9001
ag1
(g5
S'\x90\xeb,<'
p9002
tp9003
Rp9004
ag1
(g5
S'\xe7\xf98<'
p9005
tp9006
Rp9007
a.