(lp0
cnumpy.core.multiarray
scalar
p1
(cnumpy
dtype
p2
(S'f8'
p3
I0
I1
tp4
Rp5
(I3
S'<'
p6
NNNI-1
I-1
I0
tp7
bS'\x0e-\xb2\xdd`u\xe1?'
p8
tp9
Rp10
ag1
(g5
S'3\rN\xd5\xa58\xe1?'
p11
tp12
Rp13
ag1
(g5
S'H-Ep\x050\xe1?'
p14
tp15
Rp16
ag1
(g5
S'z\xa2\xfe\r\x11+\xe1?'
p17
tp18
Rp19
a.